LIBRARY AsterGC
EXPORTS
    ?$TSS0@?1??enable_dynamic_attributes@detail@pybind11@@YAXPEAU_heaptypeobject@@@Z@4HA
    ?$TSS0@?1??get_local_internals@detail@pybind11@@YAAEAUlocal_internals@12@XZ@4HA
    ??$?0$$CBV?$tuple@V?$vector@NV?$allocator@N@std@@@std@@V12@@std@@JNNNNNNNNNJNJJNN$$ZUname@pybind11@@Uscope@3@Usibling@3@$$BY0GBH@DUarg@3@U63@U63@U63@U63@U63@U63@U63@U63@U63@U63@U63@U63@U63@U63@U63@@cpp_function@pybind11@@QEAA@P6A?BV?$tuple@V?$vector@NV?$allocator@N@std@@@std@@V12@@std@@JNNNNNNNNNJNJJNN@ZAEBUname@1@AEBUscope@1@AEBUsibling@1@AEAY0GBH@$$CBDAEBUarg@1@555555555555555@Z
    ??$?0$$CBV?$tuple@V?$vector@NV?$allocator@N@std@@@std@@V12@@std@@NNNNNNNNJNN$$ZUname@pybind11@@Uscope@3@Usibling@3@$$BY0DKL@DUarg@3@U63@U63@U63@U63@U63@U63@U63@U63@U63@U63@@cpp_function@pybind11@@QEAA@P6A?BV?$tuple@V?$vector@NV?$allocator@N@std@@@std@@V12@@std@@NNNNNNNNJNN@ZAEBUname@1@AEBUscope@1@AEBUsibling@1@AEAY0DKL@$$CBDAEBUarg@1@5555555555@Z
    ??$?0$$T$0A@@handle@pybind11@@QEAA@$$T@Z
    ??$?0$$V@?$_Compressed_pair@V?$allocator@D@std@@V?$_String_val@U?$_Simple_types@D@std@@@2@$00@std@@QEAA@U_Zero_then_variadic_args_t@1@@Z
    ??$?0$$V@?$_Compressed_pair@V?$allocator@PEAD@std@@V?$_Vector_val@U?$_Simple_types@PEAD@std@@@2@$00@std@@QEAA@U_Zero_then_variadic_args_t@1@@Z
    ??$?0$$V@?$_Compressed_pair@V?$allocator@PEAU_object@@@std@@V?$_Vector_val@U?$_Simple_types@PEAU_object@@@std@@@2@$00@std@@QEAA@U_Zero_then_variadic_args_t@1@@Z
    ??$?0$$V@?$_Compressed_pair@V?$allocator@PEAU_typeobject@@@std@@V?$_Vector_val@U?$_Simple_types@PEAU_typeobject@@@std@@@2@$00@std@@QEAA@U_Zero_then_variadic_args_t@1@@Z
    ??$?0$$V@?$_Compressed_pair@V?$allocator@PEAUtype_info@detail@pybind11@@@std@@V?$_Vector_val@U?$_Simple_types@PEAUtype_info@detail@pybind11@@@std@@@2@$00@std@@QEAA@U_Zero_then_variadic_args_t@1@@Z
    ??$?0$$V@?$_Compressed_pair@V?$allocator@U?$_Flist_node@P6AXVexception_ptr@std@@@ZPEAX@std@@@std@@V?$_Flist_val@U?$_Flist_simple_types@P6AXVexception_ptr@std@@@Z@std@@@2@$00@std@@QEAA@U_Zero_then_variadic_args_t@1@@Z
    ??$?0$$V@?$_Compressed_pair@V?$allocator@U?$_Flist_node@V?$basic_string@DU?$char_traits@D@std@@V?$allocator@D@2@@std@@PEAX@std@@@std@@V?$_Flist_val@U?$_Flist_simple_types@V?$basic_string@DU?$char_traits@D@std@@V?$allocator@D@2@@std@@@std@@@2@$00@std@@QEAA@U_Zero_then_variadic_args_t@1@@Z
    ??$?0$$V@?$_Compressed_pair@V?$allocator@Uargument_record@detail@pybind11@@@std@@V?$_Vector_val@U?$_Simple_types@Uargument_record@detail@pybind11@@@std@@@2@$00@std@@QEAA@U_Zero_then_variadic_args_t@1@@Z
    ??$?0$$V@?$_Compressed_pair@V?$allocator@Ufunction_call@detail@pybind11@@@std@@V?$_Vector_val@U?$_Simple_types@Ufunction_call@detail@pybind11@@@std@@@2@$00@std@@QEAA@U_Zero_then_variadic_args_t@1@@Z
    ??$?0$$V@?$_Compressed_pair@V?$allocator@Vhandle@pybind11@@@std@@V?$_Vector_val@U?$_Simple_types@Vhandle@pybind11@@@std@@@2@$00@std@@QEAA@U_Zero_then_variadic_args_t@1@@Z
    ??$?0AEAPEAU?$_List_node@U?$pair@QEAU_typeobject@@V?$vector@PEAUtype_info@detail@pybind11@@V?$allocator@PEAUtype_info@detail@pybind11@@@std@@@std@@@std@@PEAX@std@@_N$0A@@?$pair@PEAU?$_List_node@U?$pair@QEAU_typeobject@@V?$vector@PEAUtype_info@detail@pybind11@@V?$allocator@PEAUtype_info@detail@pybind11@@@std@@@std@@@std@@PEAX@std@@_N@std@@QEAA@AEAPEAU?$_List_node@U?$pair@QEAU_typeobject@@V?$vector@PEAUtype_info@detail@pybind11@@V?$allocator@PEAUtype_info@detail@pybind11@@@std@@@std@@@std@@PEAX@1@$$QEA_N@Z
    ??$?0AEAPEAUfunction_record@detail@pybind11@@@?$_Compressed_pair@UInitializingFunctionRecordDeleter@cpp_function@pybind11@@PEAUfunction_record@detail@3@$00@std@@QEAA@U_Zero_then_variadic_args_t@1@AEAPEAUfunction_record@detail@pybind11@@@Z
    ??$?0AEAV?$allocator@D@std@@$$V@?$_Compressed_pair@V?$allocator@D@std@@V?$_String_val@U?$_Simple_types@D@std@@@2@$00@std@@QEAA@U_One_then_variadic_args_t@1@AEAV?$allocator@D@1@@Z
    ??$?0AEAV?$vector@NV?$allocator@N@std@@@std@@@?$_Tuple_val@V?$vector@NV?$allocator@N@std@@@std@@@std@@QEAA@AEAV?$vector@NV?$allocator@N@std@@@1@@Z
    ??$?0AEAV?$vector@NV?$allocator@N@std@@@std@@AEAV01@$0A@@?$tuple@V?$vector@NV?$allocator@N@std@@@std@@V12@@std@@QEAA@AEAV?$vector@NV?$allocator@N@std@@@1@0@Z
    ??$?0AEBQEAU_object@@AEBQEAU0@$0A@@?$pair@Vhandle@pybind11@@V12@@std@@QEAA@AEBQEAU_object@@0@Z
    ??$?0AEBQEAU_typeobject@@$$Z$$V@?$pair@QEAU_typeobject@@V?$vector@PEAUtype_info@detail@pybind11@@V?$allocator@PEAUtype_info@detail@pybind11@@@std@@@std@@@std@@QEAA@Upiecewise_construct_t@1@V?$tuple@AEBQEAU_typeobject@@@1@V?$tuple@$$V@1@@Z
    ??$?0AEBQEAU_typeobject@@$0A@@?$tuple@AEBQEAU_typeobject@@@std@@QEAA@AEBQEAU_typeobject@@@Z
    ??$?0AEBQEAU_typeobject@@@?$_Tuple_val@AEBQEAU_typeobject@@@std@@QEAA@AEBQEAU_typeobject@@@Z
    ??$?0AEBQEAUtype_info@detail@pybind11@@@?$_Alloc_temporary2@V?$allocator@PEAUtype_info@detail@pybind11@@@std@@@std@@QEAA@AEAV?$allocator@PEAUtype_info@detail@pybind11@@@1@AEBQEAUtype_info@detail@pybind11@@@Z
    ??$?0AEBUpiecewise_construct_t@std@@V?$tuple@AEBQEAU_typeobject@@@1@V?$tuple@$$V@1@@?$_List_node_emplace_op2@V?$allocator@U?$_List_node@U?$pair@QEAU_typeobject@@V?$vector@PEAUtype_info@detail@pybind11@@V?$allocator@PEAUtype_info@detail@pybind11@@@std@@@std@@@std@@PEAX@std@@@std@@@std@@QEAA@AEAV?$allocator@U?$_List_node@U?$pair@QEAU_typeobject@@V?$vector@PEAUtype_info@detail@pybind11@@V?$allocator@PEAUtype_info@detail@pybind11@@@std@@@std@@@std@@PEAX@std@@@1@AEBUpiecewise_construct_t@1@$$QEAV?$tuple@AEBQEAU_typeobject@@@1@$$QEAV?$tuple@$$V@1@@Z
    ??$?0AEBV?$allocator@D@std@@$$V@?$_Compressed_pair@V?$allocator@D@std@@V?$_String_val@U?$_Simple_types@D@std@@@2@$00@std@@QEAA@U_One_then_variadic_args_t@1@AEBV?$allocator@D@1@@Z
    ??$?0AEBV?$allocator@I@std@@$$V@?$_Compressed_pair@V?$allocator@I@std@@V?$_Vector_val@U?$_Simple_types@I@std@@@2@$00@std@@QEAA@U_One_then_variadic_args_t@1@AEBV?$allocator@I@1@@Z
    ??$?0AEBV?$allocator@N@std@@$$V@?$_Compressed_pair@V?$allocator@N@std@@V?$_Vector_val@U?$_Simple_types@N@std@@@2@$00@std@@QEAA@U_One_then_variadic_args_t@1@AEBV?$allocator@N@1@@Z
    ??$?0AEBV?$allocator@PEAU_object@@@std@@$$V@?$_Compressed_pair@V?$allocator@U?$_List_node@PEAU_object@@PEAX@std@@@std@@V?$_List_val@U?$_List_simple_types@PEAU_object@@@std@@@2@$00@std@@QEAA@U_One_then_variadic_args_t@1@AEBV?$allocator@PEAU_object@@@1@@Z
    ??$?0AEBV?$allocator@PEAU_object@@@std@@$$V@?$_Compressed_pair@V?$allocator@V?$_List_unchecked_const_iterator@V?$_List_val@U?$_List_simple_types@PEAU_object@@@std@@@std@@U_Iterator_base0@2@@std@@@std@@V?$_Vector_val@U?$_Simple_types@V?$_List_unchecked_const_iterator@V?$_List_val@U?$_List_simple_types@PEAU_object@@@std@@@std@@U_Iterator_base0@2@@std@@@std@@@2@$00@std@@QEAA@U_One_then_variadic_args_t@1@AEBV?$allocator@PEAU_object@@@1@@Z
    ??$?0AEBV?$allocator@PEAU_object@@@std@@$0A@@?$_Hash_vec@V?$allocator@V?$_List_unchecked_const_iterator@V?$_List_val@U?$_List_simple_types@PEAU_object@@@std@@@std@@U_Iterator_base0@2@@std@@@std@@@std@@QEAA@AEBV?$allocator@PEAU_object@@@1@@Z
    ??$?0AEBV?$allocator@U?$pair@$$CBV?$basic_string@DU?$char_traits@D@std@@V?$allocator@D@2@@std@@PEAX@std@@@std@@$$V@?$_Compressed_pair@V?$allocator@U?$_List_node@U?$pair@$$CBV?$basic_string@DU?$char_traits@D@std@@V?$allocator@D@2@@std@@PEAX@std@@PEAX@std@@@std@@V?$_List_val@U?$_List_simple_types@U?$pair@$$CBV?$basic_string@DU?$char_traits@D@std@@V?$allocator@D@2@@std@@PEAX@std@@@std@@@2@$00@std@@QEAA@U_One_then_variadic_args_t@1@AEBV?$allocator@U?$pair@$$CBV?$basic_string@DU?$char_traits@D@std@@V?$allocator@D@2@@std@@PEAX@std@@@1@@Z
    ??$?0AEBV?$allocator@U?$pair@$$CBV?$basic_string@DU?$char_traits@D@std@@V?$allocator@D@2@@std@@PEAX@std@@@std@@$$V@?$_Compressed_pair@V?$allocator@V?$_List_unchecked_iterator@V?$_List_val@U?$_List_simple_types@U?$pair@$$CBV?$basic_string@DU?$char_traits@D@std@@V?$allocator@D@2@@std@@PEAX@std@@@std@@@std@@@std@@@std@@V?$_Vector_val@U?$_Simple_types@V?$_List_unchecked_iterator@V?$_List_val@U?$_List_simple_types@U?$pair@$$CBV?$basic_string@DU?$char_traits@D@std@@V?$allocator@D@2@@std@@PEAX@std@@@std@@@std@@@std@@@std@@@2@$00@std@@QEAA@U_One_then_variadic_args_t@1@AEBV?$allocator@U?$pair@$$CBV?$basic_string@DU?$char_traits@D@std@@V?$allocator@D@2@@std@@PEAX@std@@@1@@Z
    ??$?0AEBV?$allocator@U?$pair@$$CBV?$basic_string@DU?$char_traits@D@std@@V?$allocator@D@2@@std@@PEAX@std@@@std@@$0A@@?$_Hash_vec@V?$allocator@V?$_List_unchecked_iterator@V?$_List_val@U?$_List_simple_types@U?$pair@$$CBV?$basic_string@DU?$char_traits@D@std@@V?$allocator@D@2@@std@@PEAX@std@@@std@@@std@@@std@@@std@@@std@@QEAA@AEBV?$allocator@U?$pair@$$CBV?$basic_string@DU?$char_traits@D@std@@V?$allocator@D@2@@std@@PEAX@std@@@1@@Z
    ??$?0AEBV?$allocator@U?$pair@$$CBVtype_index@std@@PEAUtype_info@detail@pybind11@@@std@@@std@@$$V@?$_Compressed_pair@V?$allocator@U?$_List_node@U?$pair@$$CBVtype_index@std@@PEAUtype_info@detail@pybind11@@@std@@PEAX@std@@@std@@V?$_List_val@U?$_List_simple_types@U?$pair@$$CBVtype_index@std@@PEAUtype_info@detail@pybind11@@@std@@@std@@@2@$00@std@@QEAA@U_One_then_variadic_args_t@1@AEBV?$allocator@U?$pair@$$CBVtype_index@std@@PEAUtype_info@detail@pybind11@@@std@@@1@@Z
    ??$?0AEBV?$allocator@U?$pair@$$CBVtype_index@std@@PEAUtype_info@detail@pybind11@@@std@@@std@@$$V@?$_Compressed_pair@V?$allocator@V?$_List_unchecked_iterator@V?$_List_val@U?$_List_simple_types@U?$pair@$$CBVtype_index@std@@PEAUtype_info@detail@pybind11@@@std@@@std@@@std@@@std@@@std@@V?$_Vector_val@U?$_Simple_types@V?$_List_unchecked_iterator@V?$_List_val@U?$_List_simple_types@U?$pair@$$CBVtype_index@std@@PEAUtype_info@detail@pybind11@@@std@@@std@@@std@@@std@@@std@@@2@$00@std@@QEAA@U_One_then_variadic_args_t@1@AEBV?$allocator@U?$pair@$$CBVtype_index@std@@PEAUtype_info@detail@pybind11@@@std@@@1@@Z
    ??$?0AEBV?$allocator@U?$pair@$$CBVtype_index@std@@PEAUtype_info@detail@pybind11@@@std@@@std@@$0A@@?$_Hash_vec@V?$allocator@V?$_List_unchecked_iterator@V?$_List_val@U?$_List_simple_types@U?$pair@$$CBVtype_index@std@@PEAUtype_info@detail@pybind11@@@std@@@std@@@std@@@std@@@std@@@std@@QEAA@AEBV?$allocator@U?$pair@$$CBVtype_index@std@@PEAUtype_info@detail@pybind11@@@std@@@1@@Z
    ??$?0AEBV?$allocator@U?$pair@$$CBVtype_index@std@@V?$vector@P6A_NPEAU_object@@AEAPEAX@ZV?$allocator@P6A_NPEAU_object@@AEAPEAX@Z@std@@@2@@std@@@std@@$$V@?$_Compressed_pair@V?$allocator@U?$_List_node@U?$pair@$$CBVtype_index@std@@V?$vector@P6A_NPEAU_object@@AEAPEAX@ZV?$allocator@P6A_NPEAU_object@@AEAPEAX@Z@std@@@2@@std@@PEAX@std@@@std@@V?$_List_val@U?$_List_simple_types@U?$pair@$$CBVtype_index@std@@V?$vector@P6A_NPEAU_object@@AEAPEAX@ZV?$allocator@P6A_NPEAU_object@@AEAPEAX@Z@std@@@2@@std@@@std@@@2@$00@std@@QEAA@U_One_then_variadic_args_t@1@AEBV?$allocator@U?$pair@$$CBVtype_index@std@@V?$vector@P6A_NPEAU_object@@AEAPEAX@ZV?$allocator@P6A_NPEAU_object@@AEAPEAX@Z@std@@@2@@std@@@1@@Z
    ??$?0AEBV?$allocator@U?$pair@$$CBVtype_index@std@@V?$vector@P6A_NPEAU_object@@AEAPEAX@ZV?$allocator@P6A_NPEAU_object@@AEAPEAX@Z@std@@@2@@std@@@std@@$$V@?$_Compressed_pair@V?$allocator@V?$_List_unchecked_iterator@V?$_List_val@U?$_List_simple_types@U?$pair@$$CBVtype_index@std@@V?$vector@P6A_NPEAU_object@@AEAPEAX@ZV?$allocator@P6A_NPEAU_object@@AEAPEAX@Z@std@@@2@@std@@@std@@@std@@@std@@@std@@V?$_Vector_val@U?$_Simple_types@V?$_List_unchecked_iterator@V?$_List_val@U?$_List_simple_types@U?$pair@$$CBVtype_index@std@@V?$vector@P6A_NPEAU_object@@AEAPEAX@ZV?$allocator@P6A_NPEAU_object@@AEAPEAX@Z@std@@@2@@std@@@std@@@std@@@std@@@std@@@2@$00@std@@QEAA@U_One_then_variadic_args_t@1@AEBV?$allocator@U?$pair@$$CBVtype_index@std@@V?$vector@P6A_NPEAU_object@@AEAPEAX@ZV?$allocator@P6A_NPEAU_object@@AEAPEAX@Z@std@@@2@@std@@@1@@Z
    ??$?0AEBV?$allocator@U?$pair@$$CBVtype_index@std@@V?$vector@P6A_NPEAU_object@@AEAPEAX@ZV?$allocator@P6A_NPEAU_object@@AEAPEAX@Z@std@@@2@@std@@@std@@$0A@@?$_Hash_vec@V?$allocator@V?$_List_unchecked_iterator@V?$_List_val@U?$_List_simple_types@U?$pair@$$CBVtype_index@std@@V?$vector@P6A_NPEAU_object@@AEAPEAX@ZV?$allocator@P6A_NPEAU_object@@AEAPEAX@Z@std@@@2@@std@@@std@@@std@@@std@@@std@@@std@@QEAA@AEBV?$allocator@U?$pair@$$CBVtype_index@std@@V?$vector@P6A_NPEAU_object@@AEAPEAX@ZV?$allocator@P6A_NPEAU_object@@AEAPEAX@Z@std@@@2@@std@@@1@@Z
    ??$?0AEBV?$allocator@U?$pair@PEBU_object@@PEBD@std@@@std@@$$V@?$_Compressed_pair@V?$allocator@U?$_List_node@U?$pair@PEBU_object@@PEBD@std@@PEAX@std@@@std@@V?$_List_val@U?$_List_simple_types@U?$pair@PEBU_object@@PEBD@std@@@std@@@2@$00@std@@QEAA@U_One_then_variadic_args_t@1@AEBV?$allocator@U?$pair@PEBU_object@@PEBD@std@@@1@@Z
    ??$?0AEBV?$allocator@U?$pair@PEBU_object@@PEBD@std@@@std@@$$V@?$_Compressed_pair@V?$allocator@V?$_List_unchecked_const_iterator@V?$_List_val@U?$_List_simple_types@U?$pair@PEBU_object@@PEBD@std@@@std@@@std@@U_Iterator_base0@2@@std@@@std@@V?$_Vector_val@U?$_Simple_types@V?$_List_unchecked_const_iterator@V?$_List_val@U?$_List_simple_types@U?$pair@PEBU_object@@PEBD@std@@@std@@@std@@U_Iterator_base0@2@@std@@@std@@@2@$00@std@@QEAA@U_One_then_variadic_args_t@1@AEBV?$allocator@U?$pair@PEBU_object@@PEBD@std@@@1@@Z
    ??$?0AEBV?$allocator@U?$pair@PEBU_object@@PEBD@std@@@std@@$0A@@?$_Hash_vec@V?$allocator@V?$_List_unchecked_const_iterator@V?$_List_val@U?$_List_simple_types@U?$pair@PEBU_object@@PEBD@std@@@std@@@std@@U_Iterator_base0@2@@std@@@std@@@std@@QEAA@AEBV?$allocator@U?$pair@PEBU_object@@PEBD@std@@@1@@Z
    ??$?0AEBV?$allocator@U?$pair@QEAU_typeobject@@V?$vector@PEAUtype_info@detail@pybind11@@V?$allocator@PEAUtype_info@detail@pybind11@@@std@@@std@@@std@@@std@@$$V@?$_Compressed_pair@V?$allocator@U?$_List_node@U?$pair@QEAU_typeobject@@V?$vector@PEAUtype_info@detail@pybind11@@V?$allocator@PEAUtype_info@detail@pybind11@@@std@@@std@@@std@@PEAX@std@@@std@@V?$_List_val@U?$_List_simple_types@U?$pair@QEAU_typeobject@@V?$vector@PEAUtype_info@detail@pybind11@@V?$allocator@PEAUtype_info@detail@pybind11@@@std@@@std@@@std@@@std@@@2@$00@std@@QEAA@U_One_then_variadic_args_t@1@AEBV?$allocator@U?$pair@QEAU_typeobject@@V?$vector@PEAUtype_info@detail@pybind11@@V?$allocator@PEAUtype_info@detail@pybind11@@@std@@@std@@@std@@@1@@Z
    ??$?0AEBV?$allocator@U?$pair@QEAU_typeobject@@V?$vector@PEAUtype_info@detail@pybind11@@V?$allocator@PEAUtype_info@detail@pybind11@@@std@@@std@@@std@@@std@@$$V@?$_Compressed_pair@V?$allocator@V?$_List_unchecked_iterator@V?$_List_val@U?$_List_simple_types@U?$pair@QEAU_typeobject@@V?$vector@PEAUtype_info@detail@pybind11@@V?$allocator@PEAUtype_info@detail@pybind11@@@std@@@std@@@std@@@std@@@std@@@std@@@std@@V?$_Vector_val@U?$_Simple_types@V?$_List_unchecked_iterator@V?$_List_val@U?$_List_simple_types@U?$pair@QEAU_typeobject@@V?$vector@PEAUtype_info@detail@pybind11@@V?$allocator@PEAUtype_info@detail@pybind11@@@std@@@std@@@std@@@std@@@std@@@std@@@std@@@2@$00@std@@QEAA@U_One_then_variadic_args_t@1@AEBV?$allocator@U?$pair@QEAU_typeobject@@V?$vector@PEAUtype_info@detail@pybind11@@V?$allocator@PEAUtype_info@detail@pybind11@@@std@@@std@@@std@@@1@@Z
    ??$?0AEBV?$allocator@U?$pair@QEAU_typeobject@@V?$vector@PEAUtype_info@detail@pybind11@@V?$allocator@PEAUtype_info@detail@pybind11@@@std@@@std@@@std@@@std@@$0A@@?$_Hash_vec@V?$allocator@V?$_List_unchecked_iterator@V?$_List_val@U?$_List_simple_types@U?$pair@QEAU_typeobject@@V?$vector@PEAUtype_info@detail@pybind11@@V?$allocator@PEAUtype_info@detail@pybind11@@@std@@@std@@@std@@@std@@@std@@@std@@@std@@@std@@QEAA@AEBV?$allocator@U?$pair@QEAU_typeobject@@V?$vector@PEAUtype_info@detail@pybind11@@V?$allocator@PEAUtype_info@detail@pybind11@@@std@@@std@@@std@@@1@@Z
    ??$?0AEBV?$allocator@U?$pair@QEBU_object@@V?$vector@PEAU_object@@V?$allocator@PEAU_object@@@std@@@std@@@std@@@std@@$$V@?$_Compressed_pair@V?$allocator@U?$_List_node@U?$pair@QEBU_object@@V?$vector@PEAU_object@@V?$allocator@PEAU_object@@@std@@@std@@@std@@PEAX@std@@@std@@V?$_List_val@U?$_List_simple_types@U?$pair@QEBU_object@@V?$vector@PEAU_object@@V?$allocator@PEAU_object@@@std@@@std@@@std@@@std@@@2@$00@std@@QEAA@U_One_then_variadic_args_t@1@AEBV?$allocator@U?$pair@QEBU_object@@V?$vector@PEAU_object@@V?$allocator@PEAU_object@@@std@@@std@@@std@@@1@@Z
    ??$?0AEBV?$allocator@U?$pair@QEBU_object@@V?$vector@PEAU_object@@V?$allocator@PEAU_object@@@std@@@std@@@std@@@std@@$$V@?$_Compressed_pair@V?$allocator@V?$_List_unchecked_iterator@V?$_List_val@U?$_List_simple_types@U?$pair@QEBU_object@@V?$vector@PEAU_object@@V?$allocator@PEAU_object@@@std@@@std@@@std@@@std@@@std@@@std@@@std@@V?$_Vector_val@U?$_Simple_types@V?$_List_unchecked_iterator@V?$_List_val@U?$_List_simple_types@U?$pair@QEBU_object@@V?$vector@PEAU_object@@V?$allocator@PEAU_object@@@std@@@std@@@std@@@std@@@std@@@std@@@std@@@2@$00@std@@QEAA@U_One_then_variadic_args_t@1@AEBV?$allocator@U?$pair@QEBU_object@@V?$vector@PEAU_object@@V?$allocator@PEAU_object@@@std@@@std@@@std@@@1@@Z
    ??$?0AEBV?$allocator@U?$pair@QEBU_object@@V?$vector@PEAU_object@@V?$allocator@PEAU_object@@@std@@@std@@@std@@@std@@$0A@@?$_Hash_vec@V?$allocator@V?$_List_unchecked_iterator@V?$_List_val@U?$_List_simple_types@U?$pair@QEBU_object@@V?$vector@PEAU_object@@V?$allocator@PEAU_object@@@std@@@std@@@std@@@std@@@std@@@std@@@std@@@std@@QEAA@AEBV?$allocator@U?$pair@QEBU_object@@V?$vector@PEAU_object@@V?$allocator@PEAU_object@@@std@@@std@@@std@@@1@@Z
    ??$?0AEBV?$allocator@U?$pair@QEBXPEAUinstance@detail@pybind11@@@std@@@std@@$$V@?$_Compressed_pair@V?$allocator@U?$_List_node@U?$pair@QEBXPEAUinstance@detail@pybind11@@@std@@PEAX@std@@@std@@V?$_List_val@U?$_List_simple_types@U?$pair@QEBXPEAUinstance@detail@pybind11@@@std@@@std@@@2@$00@std@@QEAA@U_One_then_variadic_args_t@1@AEBV?$allocator@U?$pair@QEBXPEAUinstance@detail@pybind11@@@std@@@1@@Z
    ??$?0AEBV?$allocator@U?$pair@QEBXPEAUinstance@detail@pybind11@@@std@@@std@@$$V@?$_Compressed_pair@V?$allocator@V?$_List_unchecked_iterator@V?$_List_val@U?$_List_simple_types@U?$pair@QEBXPEAUinstance@detail@pybind11@@@std@@@std@@@std@@@std@@@std@@V?$_Vector_val@U?$_Simple_types@V?$_List_unchecked_iterator@V?$_List_val@U?$_List_simple_types@U?$pair@QEBXPEAUinstance@detail@pybind11@@@std@@@std@@@std@@@std@@@std@@@2@$00@std@@QEAA@U_One_then_variadic_args_t@1@AEBV?$allocator@U?$pair@QEBXPEAUinstance@detail@pybind11@@@std@@@1@@Z
    ??$?0AEBV?$allocator@U?$pair@QEBXPEAUinstance@detail@pybind11@@@std@@@std@@$0A@@?$_Hash_vec@V?$allocator@V?$_List_unchecked_iterator@V?$_List_val@U?$_List_simple_types@U?$pair@QEBXPEAUinstance@detail@pybind11@@@std@@@std@@@std@@@std@@@std@@@std@@QEAA@AEBV?$allocator@U?$pair@QEBXPEAUinstance@detail@pybind11@@@std@@@1@@Z
    ??$?0AEBVhandle@pybind11@@@?$simple_collector@$00@detail@pybind11@@QEAA@AEBVhandle@2@@Z
    ??$?0H$0A@@tuple@pybind11@@QEAA@H@Z
    ??$?0M@?$_Compressed_pair@U?$equal_to@PEAU_object@@@std@@M$00@std@@QEAA@U_Zero_then_variadic_args_t@1@$$QEAM@Z
    ??$?0M@?$_Compressed_pair@U?$equal_to@PEAU_typeobject@@@std@@M$00@std@@QEAA@U_Zero_then_variadic_args_t@1@$$QEAM@Z
    ??$?0M@?$_Compressed_pair@U?$equal_to@PEBU_object@@@std@@M$00@std@@QEAA@U_Zero_then_variadic_args_t@1@$$QEAM@Z
    ??$?0M@?$_Compressed_pair@U?$equal_to@PEBX@std@@M$00@std@@QEAA@U_Zero_then_variadic_args_t@1@$$QEAM@Z
    ??$?0M@?$_Compressed_pair@U?$equal_to@U?$pair@PEBU_object@@PEBD@std@@@std@@M$00@std@@QEAA@U_Zero_then_variadic_args_t@1@$$QEAM@Z
    ??$?0M@?$_Compressed_pair@U?$equal_to@V?$basic_string@DU?$char_traits@D@std@@V?$allocator@D@2@@std@@@std@@M$00@std@@QEAA@U_Zero_then_variadic_args_t@1@$$QEAM@Z
    ??$?0M@?$_Compressed_pair@U?$equal_to@Vtype_index@std@@@std@@M$00@std@@QEAA@U_Zero_then_variadic_args_t@1@$$QEAM@Z
    ??$?0P6AXPEAUerror_fetch_and_normalize@detail@pybind11@@@ZAEAPEAU012@@?$_Compressed_pair@P6AXPEAUerror_fetch_and_normalize@detail@pybind11@@@ZPEAU123@$0A@@std@@QEAA@U_One_then_variadic_args_t@1@$$QEAP6AXPEAUerror_fetch_and_normalize@detail@pybind11@@@ZAEAPEAU345@@Z
    ??$?0PEAD$0A@@?$basic_string@DU?$char_traits@D@std@@V?$allocator@D@2@@std@@QEAA@PEAD0AEBV?$allocator@D@1@@Z
    ??$?0PEAU?$_List_node@U?$pair@QEAU_typeobject@@V?$vector@PEAUtype_info@detail@pybind11@@V?$allocator@PEAUtype_info@detail@pybind11@@@std@@@std@@@std@@PEAX@std@@_N$0A@@?$pair@PEAU?$_List_node@U?$pair@QEAU_typeobject@@V?$vector@PEAUtype_info@detail@pybind11@@V?$allocator@PEAUtype_info@detail@pybind11@@@std@@@std@@@std@@PEAX@std@@_N@std@@QEAA@$$QEAPEAU?$_List_node@U?$pair@QEAU_typeobject@@V?$vector@PEAUtype_info@detail@pybind11@@V?$allocator@PEAUtype_info@detail@pybind11@@@std@@@std@@@std@@PEAX@1@$$QEA_N@Z
    ??$?0PEAU_object@@$0A@@handle@pybind11@@QEAA@PEAU_object@@@Z
    ??$?0PEAU_object@@@?$allocator@U?$_List_node@PEAU_object@@PEAX@std@@@std@@QEAA@AEBV?$allocator@PEAU_object@@@1@@Z
    ??$?0PEAU_object@@@?$allocator@V?$_List_unchecked_const_iterator@V?$_List_val@U?$_List_simple_types@PEAU_object@@@std@@@std@@U_Iterator_base0@2@@std@@@std@@QEAA@AEBV?$allocator@PEAU_object@@@1@@Z
    ??$?0U?$pair@$$CBV?$basic_string@DU?$char_traits@D@std@@V?$allocator@D@2@@std@@PEAX@std@@@?$allocator@U?$_List_node@U?$pair@$$CBV?$basic_string@DU?$char_traits@D@std@@V?$allocator@D@2@@std@@PEAX@std@@PEAX@std@@@std@@QEAA@AEBV?$allocator@U?$pair@$$CBV?$basic_string@DU?$char_traits@D@std@@V?$allocator@D@2@@std@@PEAX@std@@@1@@Z
    ??$?0U?$pair@$$CBV?$basic_string@DU?$char_traits@D@std@@V?$allocator@D@2@@std@@PEAX@std@@@?$allocator@V?$_List_unchecked_iterator@V?$_List_val@U?$_List_simple_types@U?$pair@$$CBV?$basic_string@DU?$char_traits@D@std@@V?$allocator@D@2@@std@@PEAX@std@@@std@@@std@@@std@@@std@@QEAA@AEBV?$allocator@U?$pair@$$CBV?$basic_string@DU?$char_traits@D@std@@V?$allocator@D@2@@std@@PEAX@std@@@1@@Z
    ??$?0U?$pair@$$CBVtype_index@std@@PEAUtype_info@detail@pybind11@@@std@@@?$allocator@U?$_List_node@U?$pair@$$CBVtype_index@std@@PEAUtype_info@detail@pybind11@@@std@@PEAX@std@@@std@@QEAA@AEBV?$allocator@U?$pair@$$CBVtype_index@std@@PEAUtype_info@detail@pybind11@@@std@@@1@@Z
    ??$?0U?$pair@$$CBVtype_index@std@@PEAUtype_info@detail@pybind11@@@std@@@?$allocator@V?$_List_unchecked_iterator@V?$_List_val@U?$_List_simple_types@U?$pair@$$CBVtype_index@std@@PEAUtype_info@detail@pybind11@@@std@@@std@@@std@@@std@@@std@@QEAA@AEBV?$allocator@U?$pair@$$CBVtype_index@std@@PEAUtype_info@detail@pybind11@@@std@@@1@@Z
    ??$?0U?$pair@$$CBVtype_index@std@@V?$vector@P6A_NPEAU_object@@AEAPEAX@ZV?$allocator@P6A_NPEAU_object@@AEAPEAX@Z@std@@@2@@std@@@?$allocator@U?$_List_node@U?$pair@$$CBVtype_index@std@@V?$vector@P6A_NPEAU_object@@AEAPEAX@ZV?$allocator@P6A_NPEAU_object@@AEAPEAX@Z@std@@@2@@std@@PEAX@std@@@std@@QEAA@AEBV?$allocator@U?$pair@$$CBVtype_index@std@@V?$vector@P6A_NPEAU_object@@AEAPEAX@ZV?$allocator@P6A_NPEAU_object@@AEAPEAX@Z@std@@@2@@std@@@1@@Z
    ??$?0U?$pair@$$CBVtype_index@std@@V?$vector@P6A_NPEAU_object@@AEAPEAX@ZV?$allocator@P6A_NPEAU_object@@AEAPEAX@Z@std@@@2@@std@@@?$allocator@V?$_List_unchecked_iterator@V?$_List_val@U?$_List_simple_types@U?$pair@$$CBVtype_index@std@@V?$vector@P6A_NPEAU_object@@AEAPEAX@ZV?$allocator@P6A_NPEAU_object@@AEAPEAX@Z@std@@@2@@std@@@std@@@std@@@std@@@std@@QEAA@AEBV?$allocator@U?$pair@$$CBVtype_index@std@@V?$vector@P6A_NPEAU_object@@AEAPEAX@ZV?$allocator@P6A_NPEAU_object@@AEAPEAX@Z@std@@@2@@std@@@1@@Z
    ??$?0U?$pair@PEBU_object@@PEBD@std@@@?$allocator@U?$_List_node@U?$pair@PEBU_object@@PEBD@std@@PEAX@std@@@std@@QEAA@AEBV?$allocator@U?$pair@PEBU_object@@PEBD@std@@@1@@Z
    ??$?0U?$pair@PEBU_object@@PEBD@std@@@?$allocator@V?$_List_unchecked_const_iterator@V?$_List_val@U?$_List_simple_types@U?$pair@PEBU_object@@PEBD@std@@@std@@@std@@U_Iterator_base0@2@@std@@@std@@QEAA@AEBV?$allocator@U?$pair@PEBU_object@@PEBD@std@@@1@@Z
    ??$?0U?$pair@QEAU_typeobject@@V?$vector@PEAUtype_info@detail@pybind11@@V?$allocator@PEAUtype_info@detail@pybind11@@@std@@@std@@@std@@@?$allocator@U?$_List_node@U?$pair@QEAU_typeobject@@V?$vector@PEAUtype_info@detail@pybind11@@V?$allocator@PEAUtype_info@detail@pybind11@@@std@@@std@@@std@@PEAX@std@@@std@@QEAA@AEBV?$allocator@U?$pair@QEAU_typeobject@@V?$vector@PEAUtype_info@detail@pybind11@@V?$allocator@PEAUtype_info@detail@pybind11@@@std@@@std@@@std@@@1@@Z
    ??$?0U?$pair@QEAU_typeobject@@V?$vector@PEAUtype_info@detail@pybind11@@V?$allocator@PEAUtype_info@detail@pybind11@@@std@@@std@@@std@@@?$allocator@V?$_List_unchecked_iterator@V?$_List_val@U?$_List_simple_types@U?$pair@QEAU_typeobject@@V?$vector@PEAUtype_info@detail@pybind11@@V?$allocator@PEAUtype_info@detail@pybind11@@@std@@@std@@@std@@@std@@@std@@@std@@@std@@QEAA@AEBV?$allocator@U?$pair@QEAU_typeobject@@V?$vector@PEAUtype_info@detail@pybind11@@V?$allocator@PEAUtype_info@detail@pybind11@@@std@@@std@@@std@@@1@@Z
    ??$?0U?$pair@QEBU_object@@V?$vector@PEAU_object@@V?$allocator@PEAU_object@@@std@@@std@@@std@@@?$allocator@U?$_List_node@U?$pair@QEBU_object@@V?$vector@PEAU_object@@V?$allocator@PEAU_object@@@std@@@std@@@std@@PEAX@std@@@std@@QEAA@AEBV?$allocator@U?$pair@QEBU_object@@V?$vector@PEAU_object@@V?$allocator@PEAU_object@@@std@@@std@@@std@@@1@@Z
    ??$?0U?$pair@QEBU_object@@V?$vector@PEAU_object@@V?$allocator@PEAU_object@@@std@@@std@@@std@@@?$allocator@V?$_List_unchecked_iterator@V?$_List_val@U?$_List_simple_types@U?$pair@QEBU_object@@V?$vector@PEAU_object@@V?$allocator@PEAU_object@@@std@@@std@@@std@@@std@@@std@@@std@@@std@@QEAA@AEBV?$allocator@U?$pair@QEBU_object@@V?$vector@PEAU_object@@V?$allocator@PEAU_object@@@std@@@std@@@std@@@1@@Z
    ??$?0U?$pair@QEBXPEAUinstance@detail@pybind11@@@std@@@?$allocator@U?$_List_node@U?$pair@QEBXPEAUinstance@detail@pybind11@@@std@@PEAX@std@@@std@@QEAA@AEBV?$allocator@U?$pair@QEBXPEAUinstance@detail@pybind11@@@std@@@1@@Z
    ??$?0U?$pair@QEBXPEAUinstance@detail@pybind11@@@std@@@?$allocator@V?$_List_unchecked_iterator@V?$_List_val@U?$_List_simple_types@U?$pair@QEBXPEAUinstance@detail@pybind11@@@std@@@std@@@std@@@std@@@std@@QEAA@AEBV?$allocator@U?$pair@QEBXPEAUinstance@detail@pybind11@@@std@@@1@@Z
    ??$?0U?$type_caster@JX@detail@pybind11@@$0A@@?$tuple@U?$type_caster@JX@detail@pybind11@@U123@U?$type_caster@NX@23@U423@@std@@QEAA@XZ
    ??$?0U?$type_caster@JX@detail@pybind11@@$0A@@?$tuple@U?$type_caster@JX@detail@pybind11@@U?$type_caster@NX@23@U123@U123@U423@U423@@std@@QEAA@XZ
    ??$?0U?$type_caster@JX@detail@pybind11@@$0A@@?$tuple@U?$type_caster@JX@detail@pybind11@@U?$type_caster@NX@23@U423@@std@@QEAA@XZ
    ??$?0U?$type_caster@JX@detail@pybind11@@$0A@@?$tuple@U?$type_caster@JX@detail@pybind11@@U?$type_caster@NX@23@U423@U423@U423@U423@U423@U423@U423@U423@U123@U423@U123@U123@U423@U423@@std@@QEAA@XZ
    ??$?0U?$type_caster@NX@detail@pybind11@@$0A@@?$tuple@U?$type_caster@NX@detail@pybind11@@@std@@QEAA@XZ
    ??$?0U?$type_caster@NX@detail@pybind11@@$0A@@?$tuple@U?$type_caster@NX@detail@pybind11@@U123@@std@@QEAA@XZ
    ??$?0U?$type_caster@NX@detail@pybind11@@$0A@@?$tuple@U?$type_caster@NX@detail@pybind11@@U123@U123@U123@U123@U123@U123@U123@U123@U?$type_caster@JX@23@U123@U423@U423@U123@U123@@std@@QEAA@XZ
    ??$?0U?$type_caster@NX@detail@pybind11@@$0A@@?$tuple@U?$type_caster@NX@detail@pybind11@@U123@U123@U123@U123@U123@U123@U123@U?$type_caster@JX@23@U123@U123@@std@@QEAA@XZ
    ??$?0U?$type_caster@NX@detail@pybind11@@$0A@@?$tuple@U?$type_caster@NX@detail@pybind11@@U123@U123@U123@U123@U123@U123@U123@U?$type_caster@JX@23@U123@U423@U423@U123@U123@@std@@QEAA@XZ
    ??$?0U?$type_caster@NX@detail@pybind11@@$0A@@?$tuple@U?$type_caster@NX@detail@pybind11@@U123@U123@U123@U123@U123@U123@U?$type_caster@JX@23@U123@U123@@std@@QEAA@XZ
    ??$?0U?$type_caster@NX@detail@pybind11@@$0A@@?$tuple@U?$type_caster@NX@detail@pybind11@@U123@U123@U123@U123@U123@U123@U?$type_caster@JX@23@U123@U423@U423@U123@U123@@std@@QEAA@XZ
    ??$?0U?$type_caster@NX@detail@pybind11@@$0A@@?$tuple@U?$type_caster@NX@detail@pybind11@@U123@U123@U123@U123@U123@U?$type_caster@JX@23@U123@U123@@std@@QEAA@XZ
    ??$?0U?$type_caster@NX@detail@pybind11@@$0A@@?$tuple@U?$type_caster@NX@detail@pybind11@@U123@U123@U123@U123@U123@U?$type_caster@JX@23@U123@U423@U423@U123@U123@@std@@QEAA@XZ
    ??$?0U?$type_caster@NX@detail@pybind11@@$0A@@?$tuple@U?$type_caster@NX@detail@pybind11@@U123@U123@U123@U123@U?$type_caster@JX@23@U123@U123@@std@@QEAA@XZ
    ??$?0U?$type_caster@NX@detail@pybind11@@$0A@@?$tuple@U?$type_caster@NX@detail@pybind11@@U123@U123@U123@U123@U?$type_caster@JX@23@U123@U423@U423@U123@U123@@std@@QEAA@XZ
    ??$?0U?$type_caster@NX@detail@pybind11@@$0A@@?$tuple@U?$type_caster@NX@detail@pybind11@@U123@U123@U123@U?$type_caster@JX@23@U123@U123@@std@@QEAA@XZ
    ??$?0U?$type_caster@NX@detail@pybind11@@$0A@@?$tuple@U?$type_caster@NX@detail@pybind11@@U123@U123@U123@U?$type_caster@JX@23@U123@U423@U423@U123@U123@@std@@QEAA@XZ
    ??$?0U?$type_caster@NX@detail@pybind11@@$0A@@?$tuple@U?$type_caster@NX@detail@pybind11@@U123@U123@U?$type_caster@JX@23@U123@U123@@std@@QEAA@XZ
    ??$?0U?$type_caster@NX@detail@pybind11@@$0A@@?$tuple@U?$type_caster@NX@detail@pybind11@@U123@U123@U?$type_caster@JX@23@U123@U423@U423@U123@U123@@std@@QEAA@XZ
    ??$?0U?$type_caster@NX@detail@pybind11@@$0A@@?$tuple@U?$type_caster@NX@detail@pybind11@@U123@U?$type_caster@JX@23@U123@U123@@std@@QEAA@XZ
    ??$?0U?$type_caster@NX@detail@pybind11@@$0A@@?$tuple@U?$type_caster@NX@detail@pybind11@@U123@U?$type_caster@JX@23@U123@U423@U423@U123@U123@@std@@QEAA@XZ
    ??$?0U?$type_caster@NX@detail@pybind11@@$0A@@?$tuple@U?$type_caster@NX@detail@pybind11@@U?$type_caster@JX@23@U123@U123@@std@@QEAA@XZ
    ??$?0U?$type_caster@NX@detail@pybind11@@$0A@@?$tuple@U?$type_caster@NX@detail@pybind11@@U?$type_caster@JX@23@U123@U423@U423@U123@U123@@std@@QEAA@XZ
    ??$?0U?$type_caster@NX@detail@pybind11@@$0A@@?$tuple@U?$type_caster@NX@detail@pybind11@@U?$type_caster@JX@23@U423@U123@U123@@std@@QEAA@XZ
    ??$?0UInitializingFunctionRecordDeleter@cpp_function@pybind11@@$0A@@?$unique_ptr@Ufunction_record@detail@pybind11@@UInitializingFunctionRecordDeleter@cpp_function@3@@std@@QEAA@PEAUfunction_record@detail@pybind11@@@Z
    ??$?0U_Exact_args_t@std@@$0A@@?$tuple@$$V@std@@QEAA@U_Exact_args_t@1@@Z
    ??$?0U_Exact_args_t@std@@AEAV?$vector@NV?$allocator@N@std@@@1@$$V$0A@@?$tuple@V?$vector@NV?$allocator@N@std@@@std@@@std@@QEAA@U_Exact_args_t@1@AEAV?$vector@NV?$allocator@N@std@@@1@@Z
    ??$?0U_Exact_args_t@std@@AEAV?$vector@NV?$allocator@N@std@@@1@AEAV21@$0A@@?$tuple@V?$vector@NV?$allocator@N@std@@@std@@V12@@std@@QEAA@U_Exact_args_t@1@AEAV?$vector@NV?$allocator@N@std@@@1@1@Z
    ??$?0U_Exact_args_t@std@@AEBQEAU_typeobject@@$$V$0A@@?$tuple@AEBQEAU_typeobject@@@std@@QEAA@U_Exact_args_t@1@AEBQEAU_typeobject@@@Z
    ??$?0U_Zero_then_variadic_args_t@std@@M@?$_Compressed_pair@U?$hash@PEAU_object@@@std@@V?$_Compressed_pair@U?$equal_to@PEAU_object@@@std@@M$00@2@$00@std@@QEAA@U_Zero_then_variadic_args_t@1@$$QEAU21@$$QEAM@Z
    ??$?0U_Zero_then_variadic_args_t@std@@M@?$_Compressed_pair@U?$hash@PEAU_typeobject@@@std@@V?$_Compressed_pair@U?$equal_to@PEAU_typeobject@@@std@@M$00@2@$00@std@@QEAA@U_Zero_then_variadic_args_t@1@$$QEAU21@$$QEAM@Z
    ??$?0U_Zero_then_variadic_args_t@std@@M@?$_Compressed_pair@U?$hash@PEBU_object@@@std@@V?$_Compressed_pair@U?$equal_to@PEBU_object@@@std@@M$00@2@$00@std@@QEAA@U_Zero_then_variadic_args_t@1@$$QEAU21@$$QEAM@Z
    ??$?0U_Zero_then_variadic_args_t@std@@M@?$_Compressed_pair@U?$hash@PEBX@std@@V?$_Compressed_pair@U?$equal_to@PEBX@std@@M$00@2@$00@std@@QEAA@U_Zero_then_variadic_args_t@1@$$QEAU21@$$QEAM@Z
    ??$?0U_Zero_then_variadic_args_t@std@@M@?$_Compressed_pair@U?$hash@V?$basic_string@DU?$char_traits@D@std@@V?$allocator@D@2@@std@@@std@@V?$_Compressed_pair@U?$equal_to@V?$basic_string@DU?$char_traits@D@std@@V?$allocator@D@2@@std@@@std@@M$00@2@$00@std@@QEAA@U_Zero_then_variadic_args_t@1@$$QEAU21@$$QEAM@Z
    ??$?0U_Zero_then_variadic_args_t@std@@M@?$_Compressed_pair@U?$hash@Vtype_index@std@@@std@@V?$_Compressed_pair@U?$equal_to@Vtype_index@std@@@std@@M$00@2@$00@std@@QEAA@U_Zero_then_variadic_args_t@1@$$QEAU21@$$QEAM@Z
    ??$?0U_Zero_then_variadic_args_t@std@@M@?$_Compressed_pair@Uoverride_hash@detail@pybind11@@V?$_Compressed_pair@U?$equal_to@U?$pair@PEBU_object@@PEBD@std@@@std@@M$00@std@@$00@std@@QEAA@U_Zero_then_variadic_args_t@1@$$QEAU21@$$QEAM@Z
    ??$?0Uerror_fetch_and_normalize@detail@pybind11@@P6AXPEAU012@@Z$0A@@?$shared_ptr@Uerror_fetch_and_normalize@detail@pybind11@@@std@@QEAA@PEAUerror_fetch_and_normalize@detail@pybind11@@P6AX0@Z@Z
    ??$?0Ustr_attr@accessor_policies@detail@pybind11@@@str@pybind11@@QEAA@AEBV?$accessor@Ustr_attr@accessor_policies@detail@pybind11@@@detail@1@@Z
    ??$?0V<lambda_2>@?0??all_type_info_get_cache@detail@pybind11@@YA?AU?$pair@V?$_List_iterator@V?$_List_val@U?$_List_simple_types@U?$pair@QEAU_typeobject@@V?$vector@PEAUtype_info@detail@pybind11@@V?$allocator@PEAUtype_info@detail@pybind11@@@std@@@std@@@std@@@std@@@std@@@std@@_N@std@@PEAU_typeobject@@@Z@$$VX@cpp_function@pybind11@@QEAA@$$QEAV<lambda_2>@?0??all_type_info_get_cache@detail@1@YA?AU?$pair@V?$_List_iterator@V?$_List_val@U?$_List_simple_types@U?$pair@QEAU_typeobject@@V?$vector@PEAUtype_info@detail@pybind11@@V?$allocator@PEAUtype_info@detail@pybind11@@@std@@@std@@@std@@@std@@@std@@@std@@_N@std@@PEAU_typeobject@@@Z@@Z
    ??$?0V?$_List_iterator@V?$_List_val@U?$_List_simple_types@U?$pair@QEAU_typeobject@@V?$vector@PEAUtype_info@detail@pybind11@@V?$allocator@PEAUtype_info@detail@pybind11@@@std@@@std@@@std@@@std@@@std@@@std@@AEB_N$0A@@?$pair@V?$_List_iterator@V?$_List_val@U?$_List_simple_types@U?$pair@QEAU_typeobject@@V?$vector@PEAUtype_info@detail@pybind11@@V?$allocator@PEAUtype_info@detail@pybind11@@@std@@@std@@@std@@@std@@@std@@@std@@_N@std@@QEAA@$$QEAV?$_List_iterator@V?$_List_val@U?$_List_simple_types@U?$pair@QEAU_typeobject@@V?$vector@PEAUtype_info@detail@pybind11@@V?$allocator@PEAUtype_info@detail@pybind11@@@std@@@std@@@std@@@std@@@std@@@1@AEB_N@Z
    ??$?0V?$_List_iterator@V?$_List_val@U?$_List_simple_types@U?$pair@QEBXPEAUinstance@detail@pybind11@@@std@@@std@@@std@@@std@@V01@$0A@@?$pair@V?$_List_iterator@V?$_List_val@U?$_List_simple_types@U?$pair@QEBXPEAUinstance@detail@pybind11@@@std@@@std@@@std@@@std@@V12@@std@@QEAA@$$QEAV?$_List_iterator@V?$_List_val@U?$_List_simple_types@U?$pair@QEBXPEAUinstance@detail@pybind11@@@std@@@std@@@std@@@1@0@Z
    ??$?0V?$allocator@D@std@@$$V@?$_Compressed_pair@V?$allocator@D@std@@V?$_String_val@U?$_Simple_types@D@std@@@2@$00@std@@QEAA@U_One_then_variadic_args_t@1@$$QEAV?$allocator@D@1@@Z
    ??$?0V?$allocator@I@std@@PEAIPEAIPEAI@?$_Compressed_pair@V?$allocator@I@std@@V?$_Vector_val@U?$_Simple_types@I@std@@@2@$00@std@@QEAA@U_One_then_variadic_args_t@1@$$QEAV?$allocator@I@1@$$QEAPEAI22@Z
    ??$?0V?$allocator@N@std@@$$V@?$_Compressed_pair@V?$allocator@N@std@@V?$_Vector_val@U?$_Simple_types@N@std@@@2@$00@std@@QEAA@U_One_then_variadic_args_t@1@$$QEAV?$allocator@N@1@@Z
    ??$?0V?$allocator@N@std@@$0A@@?$vector@NV?$allocator@N@std@@@std@@QEAA@_KAEBNAEBV?$allocator@N@1@@Z
    ??$?0V?$allocator@Vhandle@pybind11@@@std@@PEAVhandle@pybind11@@PEAV23@PEAV23@@?$_Compressed_pair@V?$allocator@Vhandle@pybind11@@@std@@V?$_Vector_val@U?$_Simple_types@Vhandle@pybind11@@@std@@@2@$00@std@@QEAA@U_One_then_variadic_args_t@1@$$QEAV?$allocator@Vhandle@pybind11@@@1@$$QEAPEAVhandle@pybind11@@22@Z
    ??$?0V?$tuple@AEBQEAU_typeobject@@@std@@V?$tuple@$$V@1@$0A@$$Z$S@?$pair@QEAU_typeobject@@V?$vector@PEAUtype_info@detail@pybind11@@V?$allocator@PEAUtype_info@detail@pybind11@@@std@@@std@@@std@@AEAA@AEAV?$tuple@AEBQEAU_typeobject@@@1@AEAV?$tuple@$$V@1@U?$integer_sequence@_K$0A@@1@U?$integer_sequence@_K$S@1@@Z
    ??$?0V?$type_caster@Vhandle@pybind11@@X@detail@pybind11@@$0A@@?$tuple@V?$type_caster@Vhandle@pybind11@@X@detail@pybind11@@@std@@QEAA@XZ
    ??$?0Vhandle@pybind11@@$0A@@?$pyobject_caster@Vhandle@pybind11@@@detail@pybind11@@QEAA@XZ
    ??$?0_J$0A@@tuple@pybind11@@QEAA@_J@Z
    ??$?0_K$0A@@list@pybind11@@QEAA@_K@Z
    ??$?0_K$0A@@tuple@pybind11@@QEAA@_K@Z
    ??$?0_N@?$allocator@I@std@@QEAA@AEBV?$allocator@_N@1@@Z
    ??$?4AEAPEAU_object@@@?$accessor@Utuple_item@accessor_policies@detail@pybind11@@@detail@pybind11@@QEHAAXAEAPEAU_object@@@Z
    ??$?4AEAY0EH@$$CBD@?$accessor@Ustr_attr@accessor_policies@detail@pybind11@@@detail@pybind11@@QEHAAXAEAY0EH@$$CBD@Z
    ??$?4Vcapsule@pybind11@@@?$accessor@Ugeneric_item@accessor_policies@detail@pybind11@@@detail@pybind11@@QEHAAX$$QEAVcapsule@2@@Z
    ??$?CUerror_fetch_and_normalize@detail@pybind11@@$0A@@?$shared_ptr@Uerror_fetch_and_normalize@detail@pybind11@@@std@@QEBAPEAUerror_fetch_and_normalize@detail@pybind11@@XZ
    ??$?HDU?$char_traits@D@std@@V?$allocator@D@1@@std@@YA?AV?$basic_string@DU?$char_traits@D@std@@V?$allocator@D@2@@0@$$QEAV10@0@Z
    ??$?HDU?$char_traits@D@std@@V?$allocator@D@1@@std@@YA?AV?$basic_string@DU?$char_traits@D@std@@V?$allocator@D@2@@0@$$QEAV10@AEBV10@@Z
    ??$?HDU?$char_traits@D@std@@V?$allocator@D@1@@std@@YA?AV?$basic_string@DU?$char_traits@D@std@@V?$allocator@D@2@@0@$$QEAV10@D@Z
    ??$?HDU?$char_traits@D@std@@V?$allocator@D@1@@std@@YA?AV?$basic_string@DU?$char_traits@D@std@@V?$allocator@D@2@@0@$$QEAV10@QEBD@Z
    ??$?HDU?$char_traits@D@std@@V?$allocator@D@1@@std@@YA?AV?$basic_string@DU?$char_traits@D@std@@V?$allocator@D@2@@0@AEBV10@QEBD@Z
    ??$?HDU?$char_traits@D@std@@V?$allocator@D@1@@std@@YA?AV?$basic_string@DU?$char_traits@D@std@@V?$allocator@D@2@@0@QEBD$$QEAV10@@Z
    ??$?HDU?$char_traits@D@std@@V?$allocator@D@1@@std@@YA?AV?$basic_string@DU?$char_traits@D@std@@V?$allocator@D@2@@0@QEBDAEBV10@@Z
    ??$?R$00AEBVhandle@pybind11@@@?$object_api@V?$accessor@Ustr_attr@accessor_policies@detail@pybind11@@@detail@pybind11@@@detail@pybind11@@QEBA?AVobject@2@AEBVhandle@2@@Z
    ??$?RPEAU_typeobject@@@?$_Uhash_compare@PEAU_typeobject@@U?$hash@PEAU_typeobject@@@std@@U?$equal_to@PEAU_typeobject@@@3@@std@@QEBA_KAEBQEAU_typeobject@@@Z
    ??$?RPEAU_typeobject@@PEAU0@@?$_Uhash_compare@PEAU_typeobject@@U?$hash@PEAU_typeobject@@@std@@U?$equal_to@PEAU_typeobject@@@3@@std@@QEBA_NAEBQEAU_typeobject@@0@Z
    ??$?RPEBU_object@@@?$_Uhash_compare@PEBU_object@@U?$hash@PEBU_object@@@std@@U?$equal_to@PEBU_object@@@3@@std@@QEBA_KAEBQEBU_object@@@Z
    ??$?RPEBU_object@@PEBU0@@?$_Uhash_compare@PEBU_object@@U?$hash@PEBU_object@@@std@@U?$equal_to@PEBU_object@@@3@@std@@QEBA_NAEBQEBU_object@@0@Z
    ??$?RPEBX@?$_Uhash_compare@PEBXU?$hash@PEBX@std@@U?$equal_to@PEBX@2@@std@@QEBA_KAEBQEBX@Z
    ??$?RPEBXPEBX@?$_Uhash_compare@PEBXU?$hash@PEBX@std@@U?$equal_to@PEBX@2@@std@@QEBA_NAEBQEBX0@Z
    ??$?RU?$pair@PEBU_object@@PEBD@std@@@?$_Uhash_compare@U?$pair@PEBU_object@@PEBD@std@@Uoverride_hash@detail@pybind11@@U?$equal_to@U?$pair@PEBU_object@@PEBD@std@@@2@@std@@QEBA_KAEBU?$pair@PEBU_object@@PEBD@1@@Z
    ??$?RVtype_index@std@@@?$_Uhash_compare@Vtype_index@std@@U?$hash@Vtype_index@std@@@2@U?$equal_to@Vtype_index@std@@@2@@std@@QEBA_KAEBVtype_index@1@@Z
    ??$?RVtype_index@std@@V01@@?$_Uhash_compare@Vtype_index@std@@U?$hash@Vtype_index@std@@@2@U?$equal_to@Vtype_index@std@@@2@@std@@QEBA_NAEBVtype_index@1@0@Z
    ??$_Adl_verify_range@PEADPEAD@std@@YAXAEBQEAD0@Z
    ??$_Adl_verify_range@PEAV?$_List_unchecked_const_iterator@V?$_List_val@U?$_List_simple_types@PEAU_object@@@std@@@std@@U_Iterator_base0@2@@std@@PEAV12@@std@@YAXAEBQEAV?$_List_unchecked_const_iterator@V?$_List_val@U?$_List_simple_types@PEAU_object@@@std@@@std@@U_Iterator_base0@2@@0@0@Z
    ??$_Adl_verify_range@PEAV?$_List_unchecked_const_iterator@V?$_List_val@U?$_List_simple_types@U?$pair@PEBU_object@@PEBD@std@@@std@@@std@@U_Iterator_base0@2@@std@@PEAV12@@std@@YAXAEBQEAV?$_List_unchecked_const_iterator@V?$_List_val@U?$_List_simple_types@U?$pair@PEBU_object@@PEBD@std@@@std@@@std@@U_Iterator_base0@2@@0@0@Z
    ??$_Adl_verify_range@PEAV?$_List_unchecked_iterator@V?$_List_val@U?$_List_simple_types@U?$pair@$$CBV?$basic_string@DU?$char_traits@D@std@@V?$allocator@D@2@@std@@PEAX@std@@@std@@@std@@@std@@PEAV12@@std@@YAXAEBQEAV?$_List_unchecked_iterator@V?$_List_val@U?$_List_simple_types@U?$pair@$$CBV?$basic_string@DU?$char_traits@D@std@@V?$allocator@D@2@@std@@PEAX@std@@@std@@@std@@@0@0@Z
    ??$_Adl_verify_range@PEAV?$_List_unchecked_iterator@V?$_List_val@U?$_List_simple_types@U?$pair@$$CBVtype_index@std@@PEAUtype_info@detail@pybind11@@@std@@@std@@@std@@@std@@PEAV12@@std@@YAXAEBQEAV?$_List_unchecked_iterator@V?$_List_val@U?$_List_simple_types@U?$pair@$$CBVtype_index@std@@PEAUtype_info@detail@pybind11@@@std@@@std@@@std@@@0@0@Z
    ??$_Adl_verify_range@PEAV?$_List_unchecked_iterator@V?$_List_val@U?$_List_simple_types@U?$pair@$$CBVtype_index@std@@V?$vector@P6A_NPEAU_object@@AEAPEAX@ZV?$allocator@P6A_NPEAU_object@@AEAPEAX@Z@std@@@2@@std@@@std@@@std@@@std@@PEAV12@@std@@YAXAEBQEAV?$_List_unchecked_iterator@V?$_List_val@U?$_List_simple_types@U?$pair@$$CBVtype_index@std@@V?$vector@P6A_NPEAU_object@@AEAPEAX@ZV?$allocator@P6A_NPEAU_object@@AEAPEAX@Z@std@@@2@@std@@@std@@@std@@@0@0@Z
    ??$_Adl_verify_range@PEAV?$_List_unchecked_iterator@V?$_List_val@U?$_List_simple_types@U?$pair@QEAU_typeobject@@V?$vector@PEAUtype_info@detail@pybind11@@V?$allocator@PEAUtype_info@detail@pybind11@@@std@@@std@@@std@@@std@@@std@@@std@@PEAV12@@std@@YAXAEBQEAV?$_List_unchecked_iterator@V?$_List_val@U?$_List_simple_types@U?$pair@QEAU_typeobject@@V?$vector@PEAUtype_info@detail@pybind11@@V?$allocator@PEAUtype_info@detail@pybind11@@@std@@@std@@@std@@@std@@@std@@@0@0@Z
    ??$_Adl_verify_range@PEAV?$_List_unchecked_iterator@V?$_List_val@U?$_List_simple_types@U?$pair@QEBU_object@@V?$vector@PEAU_object@@V?$allocator@PEAU_object@@@std@@@std@@@std@@@std@@@std@@@std@@PEAV12@@std@@YAXAEBQEAV?$_List_unchecked_iterator@V?$_List_val@U?$_List_simple_types@U?$pair@QEBU_object@@V?$vector@PEAU_object@@V?$allocator@PEAU_object@@@std@@@std@@@std@@@std@@@std@@@0@0@Z
    ??$_Adl_verify_range@PEAV?$_List_unchecked_iterator@V?$_List_val@U?$_List_simple_types@U?$pair@QEBXPEAUinstance@detail@pybind11@@@std@@@std@@@std@@@std@@PEAV12@@std@@YAXAEBQEAV?$_List_unchecked_iterator@V?$_List_val@U?$_List_simple_types@U?$pair@QEBXPEAUinstance@detail@pybind11@@@std@@@std@@@std@@@0@0@Z
    ??$_Adl_verify_range@V?$_Vb_iterator@U?$_Wrap_alloc@V?$allocator@I@std@@@std@@@std@@V12@@std@@YAXAEBV?$_Vb_iterator@U?$_Wrap_alloc@V?$allocator@I@std@@@std@@@0@0@Z
    ??$_Allocate@$0BA@U_Default_allocate_traits@std@@@std@@YAPEAX_K@Z
    ??$_Allocate_at_least_helper@V?$allocator@D@std@@@std@@YAPEADAEAV?$allocator@D@0@AEA_K@Z
    ??$_Allocate_at_least_helper@V?$allocator@I@std@@@std@@YAPEAIAEAV?$allocator@I@0@AEA_K@Z
    ??$_Allocate_at_least_helper@V?$allocator@N@std@@@std@@YAPEANAEAV?$allocator@N@0@AEA_K@Z
    ??$_Allocate_at_least_helper@V?$allocator@PEAD@std@@@std@@YAPEAPEADAEAV?$allocator@PEAD@0@AEA_K@Z
    ??$_Allocate_at_least_helper@V?$allocator@PEAU_typeobject@@@std@@@std@@YAPEAPEAU_typeobject@@AEAV?$allocator@PEAU_typeobject@@@0@AEA_K@Z
    ??$_Allocate_at_least_helper@V?$allocator@PEAUtype_info@detail@pybind11@@@std@@@std@@YAPEAPEAUtype_info@detail@pybind11@@AEAV?$allocator@PEAUtype_info@detail@pybind11@@@0@AEA_K@Z
    ??$_Allocate_at_least_helper@V?$allocator@Uargument_record@detail@pybind11@@@std@@@std@@YAPEAUargument_record@detail@pybind11@@AEAV?$allocator@Uargument_record@detail@pybind11@@@0@AEA_K@Z
    ??$_Allocate_at_least_helper@V?$allocator@Ufunction_call@detail@pybind11@@@std@@@std@@YAPEAUfunction_call@detail@pybind11@@AEAV?$allocator@Ufunction_call@detail@pybind11@@@0@AEA_K@Z
    ??$_Allocate_at_least_helper@V?$allocator@Vhandle@pybind11@@@std@@@std@@YAPEAVhandle@pybind11@@AEAV?$allocator@Vhandle@pybind11@@@0@AEA_K@Z
    ??$_Allocate_for_capacity@$0A@@?$basic_string@DU?$char_traits@D@std@@V?$allocator@D@2@@std@@CAPEADAEAV?$allocator@D@1@AEA_K@Z
    ??$_Allocate_manually_vector_aligned@U_Default_allocate_traits@std@@@std@@YAPEAX_K@Z
    ??$_Allocators_equal@V?$allocator@D@std@@@std@@YA_NAEBV?$allocator@D@0@0@Z
    ??$_Construct@$00PEAD@?$basic_string@DU?$char_traits@D@std@@V?$allocator@D@2@@std@@AEAAXQEAD_K@Z
    ??$_Construct@$00PEBD@?$basic_string@DU?$char_traits@D@std@@V?$allocator@D@2@@std@@AEAAXQEBD_K@Z
    ??$_Construct@$01PEBD@?$basic_string@DU?$char_traits@D@std@@V?$allocator@D@2@@std@@AEAAXQEBD_K@Z
    ??$_Construct_in_place@PEADAEBQEAD@std@@YAXAEAPEADAEBQEAD@Z
    ??$_Construct_in_place@PEAU?$_Flist_node@P6AXVexception_ptr@std@@@ZPEAX@std@@AEAPEAU12@@std@@YAXAEAPEAU?$_Flist_node@P6AXVexception_ptr@std@@@ZPEAX@0@0@Z
    ??$_Construct_in_place@PEAU?$_List_node@PEAU_object@@PEAX@std@@AEAPEAU12@@std@@YAXAEAPEAU?$_List_node@PEAU_object@@PEAX@0@0@Z
    ??$_Construct_in_place@PEAU?$_List_node@U?$pair@$$CBV?$basic_string@DU?$char_traits@D@std@@V?$allocator@D@2@@std@@PEAX@std@@PEAX@std@@AEAPEAU12@@std@@YAXAEAPEAU?$_List_node@U?$pair@$$CBV?$basic_string@DU?$char_traits@D@std@@V?$allocator@D@2@@std@@PEAX@std@@PEAX@0@0@Z
    ??$_Construct_in_place@PEAU?$_List_node@U?$pair@$$CBVtype_index@std@@PEAUtype_info@detail@pybind11@@@std@@PEAX@std@@AEAPEAU12@@std@@YAXAEAPEAU?$_List_node@U?$pair@$$CBVtype_index@std@@PEAUtype_info@detail@pybind11@@@std@@PEAX@0@0@Z
    ??$_Construct_in_place@PEAU?$_List_node@U?$pair@$$CBVtype_index@std@@V?$vector@P6A_NPEAU_object@@AEAPEAX@ZV?$allocator@P6A_NPEAU_object@@AEAPEAX@Z@std@@@2@@std@@PEAX@std@@AEAPEAU12@@std@@YAXAEAPEAU?$_List_node@U?$pair@$$CBVtype_index@std@@V?$vector@P6A_NPEAU_object@@AEAPEAX@ZV?$allocator@P6A_NPEAU_object@@AEAPEAX@Z@std@@@2@@std@@PEAX@0@0@Z
    ??$_Construct_in_place@PEAU?$_List_node@U?$pair@PEBU_object@@PEBD@std@@PEAX@std@@AEAPEAU12@@std@@YAXAEAPEAU?$_List_node@U?$pair@PEBU_object@@PEBD@std@@PEAX@0@0@Z
    ??$_Construct_in_place@PEAU?$_List_node@U?$pair@QEAU_typeobject@@V?$vector@PEAUtype_info@detail@pybind11@@V?$allocator@PEAUtype_info@detail@pybind11@@@std@@@std@@@std@@PEAX@std@@AEAPEAU12@@std@@YAXAEAPEAU?$_List_node@U?$pair@QEAU_typeobject@@V?$vector@PEAUtype_info@detail@pybind11@@V?$allocator@PEAUtype_info@detail@pybind11@@@std@@@std@@@std@@PEAX@0@0@Z
    ??$_Construct_in_place@PEAU?$_List_node@U?$pair@QEAU_typeobject@@V?$vector@PEAUtype_info@detail@pybind11@@V?$allocator@PEAUtype_info@detail@pybind11@@@std@@@std@@@std@@PEAX@std@@AEBQEAU12@@std@@YAXAEAPEAU?$_List_node@U?$pair@QEAU_typeobject@@V?$vector@PEAUtype_info@detail@pybind11@@V?$allocator@PEAUtype_info@detail@pybind11@@@std@@@std@@@std@@PEAX@0@AEBQEAU10@@Z
    ??$_Construct_in_place@PEAU?$_List_node@U?$pair@QEBU_object@@V?$vector@PEAU_object@@V?$allocator@PEAU_object@@@std@@@std@@@std@@PEAX@std@@AEAPEAU12@@std@@YAXAEAPEAU?$_List_node@U?$pair@QEBU_object@@V?$vector@PEAU_object@@V?$allocator@PEAU_object@@@std@@@std@@@std@@PEAX@0@0@Z
    ??$_Construct_in_place@PEAU?$_List_node@U?$pair@QEBXPEAUinstance@detail@pybind11@@@std@@PEAX@std@@AEAPEAU12@@std@@YAXAEAPEAU?$_List_node@U?$pair@QEBXPEAUinstance@detail@pybind11@@@std@@PEAX@0@0@Z
    ??$_Construct_in_place@PEAU_typeobject@@PEAU1@@std@@YAXAEAPEAU_typeobject@@$$QEAPEAU1@@Z
    ??$_Construct_in_place@PEAUtype_info@detail@pybind11@@AEBQEAU123@@std@@YAXAEAPEAUtype_info@detail@pybind11@@AEBQEAU123@@Z
    ??$_Construct_in_place@Ufunction_call@detail@pybind11@@U123@@std@@YAXAEAUfunction_call@detail@pybind11@@$$QEAU123@@Z
    ??$_Construct_in_place@V?$_List_unchecked_const_iterator@V?$_List_val@U?$_List_simple_types@PEAU_object@@@std@@@std@@U_Iterator_base0@2@@std@@AEBV12@@std@@YAXAEAV?$_List_unchecked_const_iterator@V?$_List_val@U?$_List_simple_types@PEAU_object@@@std@@@std@@U_Iterator_base0@2@@0@AEBV10@@Z
    ??$_Construct_in_place@V?$_List_unchecked_const_iterator@V?$_List_val@U?$_List_simple_types@U?$pair@PEBU_object@@PEBD@std@@@std@@@std@@U_Iterator_base0@2@@std@@AEBV12@@std@@YAXAEAV?$_List_unchecked_const_iterator@V?$_List_val@U?$_List_simple_types@U?$pair@PEBU_object@@PEBD@std@@@std@@@std@@U_Iterator_base0@2@@0@AEBV10@@Z
    ??$_Construct_in_place@V?$_List_unchecked_iterator@V?$_List_val@U?$_List_simple_types@U?$pair@$$CBV?$basic_string@DU?$char_traits@D@std@@V?$allocator@D@2@@std@@PEAX@std@@@std@@@std@@@std@@AEBV12@@std@@YAXAEAV?$_List_unchecked_iterator@V?$_List_val@U?$_List_simple_types@U?$pair@$$CBV?$basic_string@DU?$char_traits@D@std@@V?$allocator@D@2@@std@@PEAX@std@@@std@@@std@@@0@AEBV10@@Z
    ??$_Construct_in_place@V?$_List_unchecked_iterator@V?$_List_val@U?$_List_simple_types@U?$pair@$$CBVtype_index@std@@PEAUtype_info@detail@pybind11@@@std@@@std@@@std@@@std@@AEBV12@@std@@YAXAEAV?$_List_unchecked_iterator@V?$_List_val@U?$_List_simple_types@U?$pair@$$CBVtype_index@std@@PEAUtype_info@detail@pybind11@@@std@@@std@@@std@@@0@AEBV10@@Z
    ??$_Construct_in_place@V?$_List_unchecked_iterator@V?$_List_val@U?$_List_simple_types@U?$pair@$$CBVtype_index@std@@V?$vector@P6A_NPEAU_object@@AEAPEAX@ZV?$allocator@P6A_NPEAU_object@@AEAPEAX@Z@std@@@2@@std@@@std@@@std@@@std@@AEBV12@@std@@YAXAEAV?$_List_unchecked_iterator@V?$_List_val@U?$_List_simple_types@U?$pair@$$CBVtype_index@std@@V?$vector@P6A_NPEAU_object@@AEAPEAX@ZV?$allocator@P6A_NPEAU_object@@AEAPEAX@Z@std@@@2@@std@@@std@@@std@@@0@AEBV10@@Z
    ??$_Construct_in_place@V?$_List_unchecked_iterator@V?$_List_val@U?$_List_simple_types@U?$pair@QEAU_typeobject@@V?$vector@PEAUtype_info@detail@pybind11@@V?$allocator@PEAUtype_info@detail@pybind11@@@std@@@std@@@std@@@std@@@std@@@std@@AEBV12@@std@@YAXAEAV?$_List_unchecked_iterator@V?$_List_val@U?$_List_simple_types@U?$pair@QEAU_typeobject@@V?$vector@PEAUtype_info@detail@pybind11@@V?$allocator@PEAUtype_info@detail@pybind11@@@std@@@std@@@std@@@std@@@std@@@0@AEBV10@@Z
    ??$_Construct_in_place@V?$_List_unchecked_iterator@V?$_List_val@U?$_List_simple_types@U?$pair@QEBU_object@@V?$vector@PEAU_object@@V?$allocator@PEAU_object@@@std@@@std@@@std@@@std@@@std@@@std@@AEBV12@@std@@YAXAEAV?$_List_unchecked_iterator@V?$_List_val@U?$_List_simple_types@U?$pair@QEBU_object@@V?$vector@PEAU_object@@V?$allocator@PEAU_object@@@std@@@std@@@std@@@std@@@std@@@0@AEBV10@@Z
    ??$_Construct_in_place@V?$_List_unchecked_iterator@V?$_List_val@U?$_List_simple_types@U?$pair@QEBXPEAUinstance@detail@pybind11@@@std@@@std@@@std@@@std@@AEBV12@@std@@YAXAEAV?$_List_unchecked_iterator@V?$_List_val@U?$_List_simple_types@U?$pair@QEBXPEAUinstance@detail@pybind11@@@std@@@std@@@std@@@0@AEBV10@@Z
    ??$_Construct_in_place@Vhandle@pybind11@@AEBV12@@std@@YAXAEAVhandle@pybind11@@AEBV12@@Z
    ??$_Construct_in_place@Vhandle@pybind11@@V12@@std@@YAXAEAVhandle@pybind11@@$$QEAV12@@Z
    ??$_Construct_n@AEBN@?$vector@NV?$allocator@N@std@@@std@@AEAAX_KAEBN@Z
    ??$_Construct_n@AEBQEANAEBQEAN@?$vector@NV?$allocator@N@std@@@std@@AEAAX_KAEBQEAN1@Z
    ??$_Convert_size@_K_K@std@@YA_K_K@Z
    ??$_Copy_backward_memmove@PEAPEAUtype_info@detail@pybind11@@PEAPEAU123@@std@@YAPEAPEAUtype_info@detail@pybind11@@PEAPEAU123@00@Z
    ??$_Copy_backward_unchecked@V?$_Vb_iterator@U?$_Wrap_alloc@V?$allocator@I@std@@@std@@@std@@V12@@std@@YA?AV?$_Vb_iterator@U?$_Wrap_alloc@V?$allocator@I@std@@@std@@@0@V10@00@Z
    ??$_Copy_construct_from@Uerror_fetch_and_normalize@detail@pybind11@@@?$_Ptr_base@Uerror_fetch_and_normalize@detail@pybind11@@@std@@IEAAXAEBV?$shared_ptr@Uerror_fetch_and_normalize@detail@pybind11@@@1@@Z
    ??$_Copy_memmove@PEAIPEAI@std@@YAPEAIPEAI00@Z
    ??$_Copy_memmove@PEANPEAN@std@@YAPEANPEAN00@Z
    ??$_Copy_memmove@PEAPEADPEAPEAD@std@@YAPEAPEADPEAPEAD00@Z
    ??$_Copy_memmove@PEAPEAU_typeobject@@PEAPEAU1@@std@@YAPEAPEAU_typeobject@@PEAPEAU1@00@Z
    ??$_Copy_memmove@PEAPEAUtype_info@detail@pybind11@@PEAPEAU123@@std@@YAPEAPEAUtype_info@detail@pybind11@@PEAPEAU123@00@Z
    ??$_Copy_memmove@PEAUargument_record@detail@pybind11@@PEAU123@@std@@YAPEAUargument_record@detail@pybind11@@PEAU123@00@Z
    ??$_Copy_memmove@PEAVhandle@pybind11@@PEAV12@@std@@YAPEAVhandle@pybind11@@PEAV12@00@Z
    ??$_Copy_memmove@PEBDPEAD@std@@YAPEADPEBD0PEAD@Z
    ??$_Copy_memmove_tail@PEAD@std@@YAPEADQEBDQEAD_K2@Z
    ??$_Copy_memmove_tail@PEAI@std@@YAPEAIQEBDQEAI_K2@Z
    ??$_Copy_memmove_tail@PEAN@std@@YAPEANQEBDQEAN_K2@Z
    ??$_Copy_memmove_tail@PEAPEAD@std@@YAPEAPEADQEBDQEAPEAD_K2@Z
    ??$_Copy_memmove_tail@PEAPEAU_typeobject@@@std@@YAPEAPEAU_typeobject@@QEBDQEAPEAU1@_K2@Z
    ??$_Copy_memmove_tail@PEAPEAUtype_info@detail@pybind11@@@std@@YAPEAPEAUtype_info@detail@pybind11@@QEBDQEAPEAU123@_K2@Z
    ??$_Copy_memmove_tail@PEAUargument_record@detail@pybind11@@@std@@YAPEAUargument_record@detail@pybind11@@QEBDQEAU123@_K2@Z
    ??$_Copy_memmove_tail@PEAVhandle@pybind11@@@std@@YAPEAVhandle@pybind11@@QEBDQEAV12@_K2@Z
    ??$_Copy_unchecked@PEBDPEBDPEAD@std@@YAPEADPEBD0PEAD@Z
    ??$_Copy_unchecked@V?$_Vb_iterator@U?$_Wrap_alloc@V?$allocator@I@std@@@std@@@std@@V12@V12@@std@@YA?AV?$_Vb_iterator@U?$_Wrap_alloc@V?$allocator@I@std@@@std@@@0@V10@00@Z
    ??$_Copy_vbool@V?$_Vb_iterator@U?$_Wrap_alloc@V?$allocator@I@std@@@std@@@std@@V12@@std@@YA?AV?$_Vb_iterator@U?$_Wrap_alloc@V?$allocator@I@std@@@std@@@0@V10@00@Z
    ??$_Deallocate@$0BA@@std@@YAXPEAX_K@Z
    ??$_Destroy_in_place@PEAD@std@@YAXAEAPEAD@Z
    ??$_Destroy_in_place@PEAU?$_Flist_node@P6AXVexception_ptr@std@@@ZPEAX@std@@@std@@YAXAEAPEAU?$_Flist_node@P6AXVexception_ptr@std@@@ZPEAX@0@@Z
    ??$_Destroy_in_place@PEAU?$_Flist_node@V?$basic_string@DU?$char_traits@D@std@@V?$allocator@D@2@@std@@PEAX@std@@@std@@YAXAEAPEAU?$_Flist_node@V?$basic_string@DU?$char_traits@D@std@@V?$allocator@D@2@@std@@PEAX@0@@Z
    ??$_Destroy_in_place@PEAU?$_List_node@PEAU_object@@PEAX@std@@@std@@YAXAEAPEAU?$_List_node@PEAU_object@@PEAX@0@@Z
    ??$_Destroy_in_place@PEAU?$_List_node@U?$pair@$$CBV?$basic_string@DU?$char_traits@D@std@@V?$allocator@D@2@@std@@PEAX@std@@PEAX@std@@@std@@YAXAEAPEAU?$_List_node@U?$pair@$$CBV?$basic_string@DU?$char_traits@D@std@@V?$allocator@D@2@@std@@PEAX@std@@PEAX@0@@Z
    ??$_Destroy_in_place@PEAU?$_List_node@U?$pair@$$CBVtype_index@std@@PEAUtype_info@detail@pybind11@@@std@@PEAX@std@@@std@@YAXAEAPEAU?$_List_node@U?$pair@$$CBVtype_index@std@@PEAUtype_info@detail@pybind11@@@std@@PEAX@0@@Z
    ??$_Destroy_in_place@PEAU?$_List_node@U?$pair@$$CBVtype_index@std@@V?$vector@P6A_NPEAU_object@@AEAPEAX@ZV?$allocator@P6A_NPEAU_object@@AEAPEAX@Z@std@@@2@@std@@PEAX@std@@@std@@YAXAEAPEAU?$_List_node@U?$pair@$$CBVtype_index@std@@V?$vector@P6A_NPEAU_object@@AEAPEAX@ZV?$allocator@P6A_NPEAU_object@@AEAPEAX@Z@std@@@2@@std@@PEAX@0@@Z
    ??$_Destroy_in_place@PEAU?$_List_node@U?$pair@PEBU_object@@PEBD@std@@PEAX@std@@@std@@YAXAEAPEAU?$_List_node@U?$pair@PEBU_object@@PEBD@std@@PEAX@0@@Z
    ??$_Destroy_in_place@PEAU?$_List_node@U?$pair@QEAU_typeobject@@V?$vector@PEAUtype_info@detail@pybind11@@V?$allocator@PEAUtype_info@detail@pybind11@@@std@@@std@@@std@@PEAX@std@@@std@@YAXAEAPEAU?$_List_node@U?$pair@QEAU_typeobject@@V?$vector@PEAUtype_info@detail@pybind11@@V?$allocator@PEAUtype_info@detail@pybind11@@@std@@@std@@@std@@PEAX@0@@Z
    ??$_Destroy_in_place@PEAU?$_List_node@U?$pair@QEBU_object@@V?$vector@PEAU_object@@V?$allocator@PEAU_object@@@std@@@std@@@std@@PEAX@std@@@std@@YAXAEAPEAU?$_List_node@U?$pair@QEBU_object@@V?$vector@PEAU_object@@V?$allocator@PEAU_object@@@std@@@std@@@std@@PEAX@0@@Z
    ??$_Destroy_in_place@PEAU?$_List_node@U?$pair@QEBXPEAUinstance@detail@pybind11@@@std@@PEAX@std@@@std@@YAXAEAPEAU?$_List_node@U?$pair@QEBXPEAUinstance@detail@pybind11@@@std@@PEAX@0@@Z
    ??$_Destroy_range@PEAV?$_List_unchecked_const_iterator@V?$_List_val@U?$_List_simple_types@PEAU_object@@@std@@@std@@U_Iterator_base0@2@@std@@PEAV12@@std@@YAXPEAV?$_List_unchecked_const_iterator@V?$_List_val@U?$_List_simple_types@PEAU_object@@@std@@@std@@U_Iterator_base0@2@@0@QEAV10@@Z
    ??$_Destroy_range@PEAV?$_List_unchecked_const_iterator@V?$_List_val@U?$_List_simple_types@U?$pair@PEBU_object@@PEBD@std@@@std@@@std@@U_Iterator_base0@2@@std@@PEAV12@@std@@YAXPEAV?$_List_unchecked_const_iterator@V?$_List_val@U?$_List_simple_types@U?$pair@PEBU_object@@PEBD@std@@@std@@@std@@U_Iterator_base0@2@@0@QEAV10@@Z
    ??$_Destroy_range@PEAV?$_List_unchecked_iterator@V?$_List_val@U?$_List_simple_types@U?$pair@$$CBV?$basic_string@DU?$char_traits@D@std@@V?$allocator@D@2@@std@@PEAX@std@@@std@@@std@@@std@@PEAV12@@std@@YAXPEAV?$_List_unchecked_iterator@V?$_List_val@U?$_List_simple_types@U?$pair@$$CBV?$basic_string@DU?$char_traits@D@std@@V?$allocator@D@2@@std@@PEAX@std@@@std@@@std@@@0@QEAV10@@Z
    ??$_Destroy_range@PEAV?$_List_unchecked_iterator@V?$_List_val@U?$_List_simple_types@U?$pair@$$CBVtype_index@std@@PEAUtype_info@detail@pybind11@@@std@@@std@@@std@@@std@@PEAV12@@std@@YAXPEAV?$_List_unchecked_iterator@V?$_List_val@U?$_List_simple_types@U?$pair@$$CBVtype_index@std@@PEAUtype_info@detail@pybind11@@@std@@@std@@@std@@@0@QEAV10@@Z
    ??$_Destroy_range@PEAV?$_List_unchecked_iterator@V?$_List_val@U?$_List_simple_types@U?$pair@$$CBVtype_index@std@@V?$vector@P6A_NPEAU_object@@AEAPEAX@ZV?$allocator@P6A_NPEAU_object@@AEAPEAX@Z@std@@@2@@std@@@std@@@std@@@std@@PEAV12@@std@@YAXPEAV?$_List_unchecked_iterator@V?$_List_val@U?$_List_simple_types@U?$pair@$$CBVtype_index@std@@V?$vector@P6A_NPEAU_object@@AEAPEAX@ZV?$allocator@P6A_NPEAU_object@@AEAPEAX@Z@std@@@2@@std@@@std@@@std@@@0@QEAV10@@Z
    ??$_Destroy_range@PEAV?$_List_unchecked_iterator@V?$_List_val@U?$_List_simple_types@U?$pair@QEAU_typeobject@@V?$vector@PEAUtype_info@detail@pybind11@@V?$allocator@PEAUtype_info@detail@pybind11@@@std@@@std@@@std@@@std@@@std@@@std@@PEAV12@@std@@YAXPEAV?$_List_unchecked_iterator@V?$_List_val@U?$_List_simple_types@U?$pair@QEAU_typeobject@@V?$vector@PEAUtype_info@detail@pybind11@@V?$allocator@PEAUtype_info@detail@pybind11@@@std@@@std@@@std@@@std@@@std@@@0@QEAV10@@Z
    ??$_Destroy_range@PEAV?$_List_unchecked_iterator@V?$_List_val@U?$_List_simple_types@U?$pair@QEBU_object@@V?$vector@PEAU_object@@V?$allocator@PEAU_object@@@std@@@std@@@std@@@std@@@std@@@std@@PEAV12@@std@@YAXPEAV?$_List_unchecked_iterator@V?$_List_val@U?$_List_simple_types@U?$pair@QEBU_object@@V?$vector@PEAU_object@@V?$allocator@PEAU_object@@@std@@@std@@@std@@@std@@@std@@@0@QEAV10@@Z
    ??$_Destroy_range@PEAV?$_List_unchecked_iterator@V?$_List_val@U?$_List_simple_types@U?$pair@QEBXPEAUinstance@detail@pybind11@@@std@@@std@@@std@@@std@@PEAV12@@std@@YAXPEAV?$_List_unchecked_iterator@V?$_List_val@U?$_List_simple_types@U?$pair@QEBXPEAUinstance@detail@pybind11@@@std@@@std@@@std@@@0@QEAV10@@Z
    ??$_Destroy_range@V?$allocator@I@std@@@std@@YAXPEAIQEAIAEAV?$allocator@I@0@@Z
    ??$_Destroy_range@V?$allocator@N@std@@@std@@YAXPEANQEANAEAV?$allocator@N@0@@Z
    ??$_Destroy_range@V?$allocator@P6APEAU_object@@PEAU1@PEAU_typeobject@@@Z@std@@@std@@YAXPEAP6APEAU_object@@PEAU1@PEAU_typeobject@@@ZQEAP6APEAU1@01@ZAEAV?$allocator@P6APEAU_object@@PEAU1@PEAU_typeobject@@@Z@0@@Z
    ??$_Destroy_range@V?$allocator@P6A_NPEAU_object@@AEAPEAX@Z@std@@@std@@YAXPEAP6A_NPEAU_object@@AEAPEAX@ZQEAP6A_N01@ZAEAV?$allocator@P6A_NPEAU_object@@AEAPEAX@Z@0@@Z
    ??$_Destroy_range@V?$allocator@PEAD@std@@@std@@YAXPEAPEADQEAPEADAEAV?$allocator@PEAD@0@@Z
    ??$_Destroy_range@V?$allocator@PEAU_object@@@std@@@std@@YAXPEAPEAU_object@@QEAPEAU1@AEAV?$allocator@PEAU_object@@@0@@Z
    ??$_Destroy_range@V?$allocator@PEAU_typeobject@@@std@@@std@@YAXPEAPEAU_typeobject@@QEAPEAU1@AEAV?$allocator@PEAU_typeobject@@@0@@Z
    ??$_Destroy_range@V?$allocator@PEAUtype_info@detail@pybind11@@@std@@@std@@YAXPEAPEAUtype_info@detail@pybind11@@QEAPEAU123@AEAV?$allocator@PEAUtype_info@detail@pybind11@@@0@@Z
    ??$_Destroy_range@V?$allocator@U?$pair@PEBVtype_info@@P6APEAXPEAX@Z@std@@@std@@@std@@YAXPEAU?$pair@PEBVtype_info@@P6APEAXPEAX@Z@0@QEAU10@AEAV?$allocator@U?$pair@PEBVtype_info@@P6APEAXPEAX@Z@std@@@0@@Z
    ??$_Destroy_range@V?$allocator@Uargument_record@detail@pybind11@@@std@@@std@@YAXPEAUargument_record@detail@pybind11@@QEAU123@AEAV?$allocator@Uargument_record@detail@pybind11@@@0@@Z
    ??$_Destroy_range@V?$allocator@Ufunction_call@detail@pybind11@@@std@@@std@@YAXPEAUfunction_call@detail@pybind11@@QEAU123@AEAV?$allocator@Ufunction_call@detail@pybind11@@@0@@Z
    ??$_Destroy_range@V?$allocator@Vhandle@pybind11@@@std@@@std@@YAXPEAVhandle@pybind11@@QEAV12@AEAV?$allocator@Vhandle@pybind11@@@0@@Z
    ??$_Emplace_back@AEBI@?$_Uninitialized_backout_al@V?$allocator@I@std@@@std@@QEAAXAEBI@Z
    ??$_Emplace_back@AEBN@?$_Uninitialized_backout_al@V?$allocator@N@std@@@std@@QEAAXAEBN@Z
    ??$_Emplace_back@AEBV?$_List_unchecked_const_iterator@V?$_List_val@U?$_List_simple_types@PEAU_object@@@std@@@std@@U_Iterator_base0@2@@std@@@?$_Uninitialized_backout@PEAV?$_List_unchecked_const_iterator@V?$_List_val@U?$_List_simple_types@PEAU_object@@@std@@@std@@U_Iterator_base0@2@@std@@@std@@QEAAXAEBV?$_List_unchecked_const_iterator@V?$_List_val@U?$_List_simple_types@PEAU_object@@@std@@@std@@U_Iterator_base0@2@@1@@Z
    ??$_Emplace_back@AEBV?$_List_unchecked_const_iterator@V?$_List_val@U?$_List_simple_types@U?$pair@PEBU_object@@PEBD@std@@@std@@@std@@U_Iterator_base0@2@@std@@@?$_Uninitialized_backout@PEAV?$_List_unchecked_const_iterator@V?$_List_val@U?$_List_simple_types@U?$pair@PEBU_object@@PEBD@std@@@std@@@std@@U_Iterator_base0@2@@std@@@std@@QEAAXAEBV?$_List_unchecked_const_iterator@V?$_List_val@U?$_List_simple_types@U?$pair@PEBU_object@@PEBD@std@@@std@@@std@@U_Iterator_base0@2@@1@@Z
    ??$_Emplace_back@AEBV?$_List_unchecked_iterator@V?$_List_val@U?$_List_simple_types@U?$pair@$$CBV?$basic_string@DU?$char_traits@D@std@@V?$allocator@D@2@@std@@PEAX@std@@@std@@@std@@@std@@@?$_Uninitialized_backout@PEAV?$_List_unchecked_iterator@V?$_List_val@U?$_List_simple_types@U?$pair@$$CBV?$basic_string@DU?$char_traits@D@std@@V?$allocator@D@2@@std@@PEAX@std@@@std@@@std@@@std@@@std@@QEAAXAEBV?$_List_unchecked_iterator@V?$_List_val@U?$_List_simple_types@U?$pair@$$CBV?$basic_string@DU?$char_traits@D@std@@V?$allocator@D@2@@std@@PEAX@std@@@std@@@std@@@1@@Z
    ??$_Emplace_back@AEBV?$_List_unchecked_iterator@V?$_List_val@U?$_List_simple_types@U?$pair@$$CBVtype_index@std@@PEAUtype_info@detail@pybind11@@@std@@@std@@@std@@@std@@@?$_Uninitialized_backout@PEAV?$_List_unchecked_iterator@V?$_List_val@U?$_List_simple_types@U?$pair@$$CBVtype_index@std@@PEAUtype_info@detail@pybind11@@@std@@@std@@@std@@@std@@@std@@QEAAXAEBV?$_List_unchecked_iterator@V?$_List_val@U?$_List_simple_types@U?$pair@$$CBVtype_index@std@@PEAUtype_info@detail@pybind11@@@std@@@std@@@std@@@1@@Z
    ??$_Emplace_back@AEBV?$_List_unchecked_iterator@V?$_List_val@U?$_List_simple_types@U?$pair@$$CBVtype_index@std@@V?$vector@P6A_NPEAU_object@@AEAPEAX@ZV?$allocator@P6A_NPEAU_object@@AEAPEAX@Z@std@@@2@@std@@@std@@@std@@@std@@@?$_Uninitialized_backout@PEAV?$_List_unchecked_iterator@V?$_List_val@U?$_List_simple_types@U?$pair@$$CBVtype_index@std@@V?$vector@P6A_NPEAU_object@@AEAPEAX@ZV?$allocator@P6A_NPEAU_object@@AEAPEAX@Z@std@@@2@@std@@@std@@@std@@@std@@@std@@QEAAXAEBV?$_List_unchecked_iterator@V?$_List_val@U?$_List_simple_types@U?$pair@$$CBVtype_index@std@@V?$vector@P6A_NPEAU_object@@AEAPEAX@ZV?$allocator@P6A_NPEAU_object@@AEAPEAX@Z@std@@@2@@std@@@std@@@std@@@1@@Z
    ??$_Emplace_back@AEBV?$_List_unchecked_iterator@V?$_List_val@U?$_List_simple_types@U?$pair@QEAU_typeobject@@V?$vector@PEAUtype_info@detail@pybind11@@V?$allocator@PEAUtype_info@detail@pybind11@@@std@@@std@@@std@@@std@@@std@@@std@@@?$_Uninitialized_backout@PEAV?$_List_unchecked_iterator@V?$_List_val@U?$_List_simple_types@U?$pair@QEAU_typeobject@@V?$vector@PEAUtype_info@detail@pybind11@@V?$allocator@PEAUtype_info@detail@pybind11@@@std@@@std@@@std@@@std@@@std@@@std@@@std@@QEAAXAEBV?$_List_unchecked_iterator@V?$_List_val@U?$_List_simple_types@U?$pair@QEAU_typeobject@@V?$vector@PEAUtype_info@detail@pybind11@@V?$allocator@PEAUtype_info@detail@pybind11@@@std@@@std@@@std@@@std@@@std@@@1@@Z
    ??$_Emplace_back@AEBV?$_List_unchecked_iterator@V?$_List_val@U?$_List_simple_types@U?$pair@QEBU_object@@V?$vector@PEAU_object@@V?$allocator@PEAU_object@@@std@@@std@@@std@@@std@@@std@@@std@@@?$_Uninitialized_backout@PEAV?$_List_unchecked_iterator@V?$_List_val@U?$_List_simple_types@U?$pair@QEBU_object@@V?$vector@PEAU_object@@V?$allocator@PEAU_object@@@std@@@std@@@std@@@std@@@std@@@std@@@std@@QEAAXAEBV?$_List_unchecked_iterator@V?$_List_val@U?$_List_simple_types@U?$pair@QEBU_object@@V?$vector@PEAU_object@@V?$allocator@PEAU_object@@@std@@@std@@@std@@@std@@@std@@@1@@Z
    ??$_Emplace_back@AEBV?$_List_unchecked_iterator@V?$_List_val@U?$_List_simple_types@U?$pair@QEBXPEAUinstance@detail@pybind11@@@std@@@std@@@std@@@std@@@?$_Uninitialized_backout@PEAV?$_List_unchecked_iterator@V?$_List_val@U?$_List_simple_types@U?$pair@QEBXPEAUinstance@detail@pybind11@@@std@@@std@@@std@@@std@@@std@@QEAAXAEBV?$_List_unchecked_iterator@V?$_List_val@U?$_List_simple_types@U?$pair@QEBXPEAUinstance@detail@pybind11@@@std@@@std@@@std@@@1@@Z
    ??$_Emplace_back@Ufunction_call@detail@pybind11@@@?$_Uninitialized_backout_al@V?$allocator@Ufunction_call@detail@pybind11@@@std@@@std@@QEAAX$$QEAUfunction_call@detail@pybind11@@@Z
    ??$_Emplace_back_with_unused_capacity@AEAY04$$CBD$$TVhandle@pybind11@@_N_N@?$vector@Uargument_record@detail@pybind11@@V?$allocator@Uargument_record@detail@pybind11@@@std@@@std@@AEAAAEAUargument_record@detail@pybind11@@AEAY04$$CBD$$QEA$$T$$QEAVhandle@4@$$QEA_N3@Z
    ??$_Emplace_back_with_unused_capacity@AEBQEAD@?$vector@PEADV?$allocator@PEAD@std@@@std@@AEAAAEAPEADAEBQEAD@Z
    ??$_Emplace_back_with_unused_capacity@AEBQEAUtype_info@detail@pybind11@@@?$vector@PEAUtype_info@detail@pybind11@@V?$allocator@PEAUtype_info@detail@pybind11@@@std@@@std@@AEAAAEAPEAUtype_info@detail@pybind11@@AEBQEAU234@@Z
    ??$_Emplace_back_with_unused_capacity@AEBQEBD$$TVhandle@pybind11@@_NAEB_N@?$vector@Uargument_record@detail@pybind11@@V?$allocator@Uargument_record@detail@pybind11@@@std@@@std@@AEAAAEAUargument_record@detail@pybind11@@AEBQEBD$$QEA$$T$$QEAVhandle@4@$$QEA_NAEB_N@Z
    ??$_Emplace_back_with_unused_capacity@AEBVhandle@pybind11@@@?$vector@Vhandle@pybind11@@V?$allocator@Vhandle@pybind11@@@std@@@std@@AEAAAEAVhandle@pybind11@@AEBV23@@Z
    ??$_Emplace_back_with_unused_capacity@PEAU_object@@@?$vector@Vhandle@pybind11@@V?$allocator@Vhandle@pybind11@@@std@@@std@@AEAAAEAVhandle@pybind11@@$$QEAPEAU_object@@@Z
    ??$_Emplace_back_with_unused_capacity@PEAU_typeobject@@@?$vector@PEAU_typeobject@@V?$allocator@PEAU_typeobject@@@std@@@std@@AEAAAEAPEAU_typeobject@@$$QEAPEAU2@@Z
    ??$_Emplace_back_with_unused_capacity@Ufunction_call@detail@pybind11@@@?$vector@Ufunction_call@detail@pybind11@@V?$allocator@Ufunction_call@detail@pybind11@@@std@@@std@@AEAAAEAUfunction_call@detail@pybind11@@$$QEAU234@@Z
    ??$_Emplace_back_with_unused_capacity@Vhandle@pybind11@@@?$vector@Vhandle@pybind11@@V?$allocator@Vhandle@pybind11@@@std@@@std@@AEAAAEAVhandle@pybind11@@$$QEAV23@@Z
    ??$_Emplace_one_at_back@AEAY04$$CBD$$TVhandle@pybind11@@_N_N@?$vector@Uargument_record@detail@pybind11@@V?$allocator@Uargument_record@detail@pybind11@@@std@@@std@@AEAAAEAUargument_record@detail@pybind11@@AEAY04$$CBD$$QEA$$T$$QEAVhandle@4@$$QEA_N3@Z
    ??$_Emplace_one_at_back@AEBQEAD@?$vector@PEADV?$allocator@PEAD@std@@@std@@AEAAAEAPEADAEBQEAD@Z
    ??$_Emplace_one_at_back@AEBQEAUtype_info@detail@pybind11@@@?$vector@PEAUtype_info@detail@pybind11@@V?$allocator@PEAUtype_info@detail@pybind11@@@std@@@std@@AEAAAEAPEAUtype_info@detail@pybind11@@AEBQEAU234@@Z
    ??$_Emplace_one_at_back@AEBQEBD$$TVhandle@pybind11@@_NAEB_N@?$vector@Uargument_record@detail@pybind11@@V?$allocator@Uargument_record@detail@pybind11@@@std@@@std@@AEAAAEAUargument_record@detail@pybind11@@AEBQEBD$$QEA$$T$$QEAVhandle@4@$$QEA_NAEB_N@Z
    ??$_Emplace_one_at_back@AEBVhandle@pybind11@@@?$vector@Vhandle@pybind11@@V?$allocator@Vhandle@pybind11@@@std@@@std@@AEAAAEAVhandle@pybind11@@AEBV23@@Z
    ??$_Emplace_one_at_back@PEAU_object@@@?$vector@Vhandle@pybind11@@V?$allocator@Vhandle@pybind11@@@std@@@std@@AEAAAEAVhandle@pybind11@@$$QEAPEAU_object@@@Z
    ??$_Emplace_one_at_back@PEAU_typeobject@@@?$vector@PEAU_typeobject@@V?$allocator@PEAU_typeobject@@@std@@@std@@AEAAAEAPEAU_typeobject@@$$QEAPEAU2@@Z
    ??$_Emplace_one_at_back@Ufunction_call@detail@pybind11@@@?$vector@Ufunction_call@detail@pybind11@@V?$allocator@Ufunction_call@detail@pybind11@@@std@@@std@@AEAAAEAUfunction_call@detail@pybind11@@$$QEAU234@@Z
    ??$_Emplace_one_at_back@Vhandle@pybind11@@@?$vector@Vhandle@pybind11@@V?$allocator@Vhandle@pybind11@@@std@@@std@@AEAAAEAVhandle@pybind11@@$$QEAV23@@Z
    ??$_Emplace_reallocate@AEAY04$$CBD$$TVhandle@pybind11@@_N_N@?$vector@Uargument_record@detail@pybind11@@V?$allocator@Uargument_record@detail@pybind11@@@std@@@std@@AEAAPEAUargument_record@detail@pybind11@@QEAU234@AEAY04$$CBD$$QEA$$T$$QEAVhandle@4@$$QEA_N4@Z
    ??$_Emplace_reallocate@AEBQEAD@?$vector@PEADV?$allocator@PEAD@std@@@std@@AEAAPEAPEADQEAPEADAEBQEAD@Z
    ??$_Emplace_reallocate@AEBQEAUtype_info@detail@pybind11@@@?$vector@PEAUtype_info@detail@pybind11@@V?$allocator@PEAUtype_info@detail@pybind11@@@std@@@std@@AEAAPEAPEAUtype_info@detail@pybind11@@QEAPEAU234@AEBQEAU234@@Z
    ??$_Emplace_reallocate@AEBQEBD$$TVhandle@pybind11@@_NAEB_N@?$vector@Uargument_record@detail@pybind11@@V?$allocator@Uargument_record@detail@pybind11@@@std@@@std@@AEAAPEAUargument_record@detail@pybind11@@QEAU234@AEBQEBD$$QEA$$T$$QEAVhandle@4@$$QEA_NAEB_N@Z
    ??$_Emplace_reallocate@AEBVhandle@pybind11@@@?$vector@Vhandle@pybind11@@V?$allocator@Vhandle@pybind11@@@std@@@std@@AEAAPEAVhandle@pybind11@@QEAV23@AEBV23@@Z
    ??$_Emplace_reallocate@PEAU_object@@@?$vector@Vhandle@pybind11@@V?$allocator@Vhandle@pybind11@@@std@@@std@@AEAAPEAVhandle@pybind11@@QEAV23@$$QEAPEAU_object@@@Z
    ??$_Emplace_reallocate@PEAU_typeobject@@@?$vector@PEAU_typeobject@@V?$allocator@PEAU_typeobject@@@std@@@std@@AEAAPEAPEAU_typeobject@@QEAPEAU2@$$QEAPEAU2@@Z
    ??$_Emplace_reallocate@Ufunction_call@detail@pybind11@@@?$vector@Ufunction_call@detail@pybind11@@V?$allocator@Ufunction_call@detail@pybind11@@@std@@@std@@AEAAPEAUfunction_call@detail@pybind11@@QEAU234@$$QEAU234@@Z
    ??$_Emplace_reallocate@Vhandle@pybind11@@@?$vector@Vhandle@pybind11@@V?$allocator@Vhandle@pybind11@@@std@@@std@@AEAAPEAVhandle@pybind11@@QEAV23@$$QEAV23@@Z
    ??$_Equal_range@PEBX@?$_Hash@V?$_Umap_traits@PEBXPEAUinstance@detail@pybind11@@V?$_Uhash_compare@PEBXU?$hash@PEBX@std@@U?$equal_to@PEBX@2@@std@@V?$allocator@U?$pair@QEBXPEAUinstance@detail@pybind11@@@std@@@5@$00@std@@@std@@AEBA?AU_Equal_range_result@01@AEBQEBX_K@Z
    ??$_Erase@PEAU_typeobject@@@?$_Hash@V?$_Umap_traits@PEAU_typeobject@@V?$vector@PEAUtype_info@detail@pybind11@@V?$allocator@PEAUtype_info@detail@pybind11@@@std@@@std@@V?$_Uhash_compare@PEAU_typeobject@@U?$hash@PEAU_typeobject@@@std@@U?$equal_to@PEAU_typeobject@@@3@@3@V?$allocator@U?$pair@QEAU_typeobject@@V?$vector@PEAUtype_info@detail@pybind11@@V?$allocator@PEAUtype_info@detail@pybind11@@@std@@@std@@@std@@@3@$0A@@std@@@std@@AEAA_KAEBQEAU_typeobject@@@Z
    ??$_Erase@Vtype_index@std@@@?$_Hash@V?$_Umap_traits@Vtype_index@std@@PEAUtype_info@detail@pybind11@@V?$_Uhash_compare@Vtype_index@std@@U?$hash@Vtype_index@std@@@2@U?$equal_to@Vtype_index@std@@@2@@2@V?$allocator@U?$pair@$$CBVtype_index@std@@PEAUtype_info@detail@pybind11@@@std@@@2@$0A@@std@@@std@@AEAA_KAEBVtype_index@1@@Z
    ??$_Erase@Vtype_index@std@@@?$_Hash@V?$_Umap_traits@Vtype_index@std@@V?$vector@P6A_NPEAU_object@@AEAPEAX@ZV?$allocator@P6A_NPEAU_object@@AEAPEAX@Z@std@@@2@V?$_Uhash_compare@Vtype_index@std@@U?$hash@Vtype_index@std@@@2@U?$equal_to@Vtype_index@std@@@2@@2@V?$allocator@U?$pair@$$CBVtype_index@std@@V?$vector@P6A_NPEAU_object@@AEAPEAX@ZV?$allocator@P6A_NPEAU_object@@AEAPEAX@Z@std@@@2@@std@@@2@$0A@@std@@@std@@AEAA_KAEBVtype_index@1@@Z
    ??$_Fill_vbool@V?$_Vb_iterator@U?$_Wrap_alloc@V?$allocator@I@std@@@std@@@std@@@std@@YAXV?$_Vb_iterator@U?$_Wrap_alloc@V?$allocator@I@std@@@std@@@0@0_N@Z
    ??$_Fill_zero_memset@PEAI@std@@YAXPEAI_K@Z
    ??$_Fill_zero_memset@PEAN@std@@YAXPEAN_K@Z
    ??$_Find@PEAU_typeobject@@@?$_Hash@V?$_Umap_traits@PEAU_typeobject@@V?$vector@PEAUtype_info@detail@pybind11@@V?$allocator@PEAUtype_info@detail@pybind11@@@std@@@std@@V?$_Uhash_compare@PEAU_typeobject@@U?$hash@PEAU_typeobject@@@std@@U?$equal_to@PEAU_typeobject@@@3@@3@V?$allocator@U?$pair@QEAU_typeobject@@V?$vector@PEAUtype_info@detail@pybind11@@V?$allocator@PEAUtype_info@detail@pybind11@@@std@@@std@@@std@@@3@$0A@@std@@@std@@AEBAPEAU?$_List_node@U?$pair@QEAU_typeobject@@V?$vector@PEAUtype_info@detail@pybind11@@V?$allocator@PEAUtype_info@detail@pybind11@@@std@@@std@@@std@@PEAX@1@AEBQEAU_typeobject@@_K@Z
    ??$_Find@PEBU_object@@@?$_Hash@V?$_Umap_traits@PEBU_object@@V?$vector@PEAU_object@@V?$allocator@PEAU_object@@@std@@@std@@V?$_Uhash_compare@PEBU_object@@U?$hash@PEBU_object@@@std@@U?$equal_to@PEBU_object@@@3@@3@V?$allocator@U?$pair@QEBU_object@@V?$vector@PEAU_object@@V?$allocator@PEAU_object@@@std@@@std@@@std@@@3@$0A@@std@@@std@@AEBAPEAU?$_List_node@U?$pair@QEBU_object@@V?$vector@PEAU_object@@V?$allocator@PEAU_object@@@std@@@std@@@std@@PEAX@1@AEBQEBU_object@@_K@Z
    ??$_Find@Vtype_index@std@@@?$_Hash@V?$_Umap_traits@Vtype_index@std@@PEAUtype_info@detail@pybind11@@V?$_Uhash_compare@Vtype_index@std@@U?$hash@Vtype_index@std@@@2@U?$equal_to@Vtype_index@std@@@2@@2@V?$allocator@U?$pair@$$CBVtype_index@std@@PEAUtype_info@detail@pybind11@@@std@@@2@$0A@@std@@@std@@AEBAPEAU?$_List_node@U?$pair@$$CBVtype_index@std@@PEAUtype_info@detail@pybind11@@@std@@PEAX@1@AEBVtype_index@1@_K@Z
    ??$_Find_end_vectorized@$$CBD$$CBD@std@@YAPEBDQEBD00_K@Z
    ??$_Find_last@PEAU_typeobject@@@?$_Hash@V?$_Umap_traits@PEAU_typeobject@@V?$vector@PEAUtype_info@detail@pybind11@@V?$allocator@PEAUtype_info@detail@pybind11@@@std@@@std@@V?$_Uhash_compare@PEAU_typeobject@@U?$hash@PEAU_typeobject@@@std@@U?$equal_to@PEAU_typeobject@@@3@@3@V?$allocator@U?$pair@QEAU_typeobject@@V?$vector@PEAUtype_info@detail@pybind11@@V?$allocator@PEAUtype_info@detail@pybind11@@@std@@@std@@@std@@@3@$0A@@std@@@std@@IEBA?AU?$_Hash_find_last_result@PEAU?$_List_node@U?$pair@QEAU_typeobject@@V?$vector@PEAUtype_info@detail@pybind11@@V?$allocator@PEAUtype_info@detail@pybind11@@@std@@@std@@@std@@PEAX@std@@@1@AEBQEAU_typeobject@@_K@Z
    ??$_Find_last@PEBU_object@@@?$_Hash@V?$_Umap_traits@PEBU_object@@V?$vector@PEAU_object@@V?$allocator@PEAU_object@@@std@@@std@@V?$_Uhash_compare@PEBU_object@@U?$hash@PEBU_object@@@std@@U?$equal_to@PEBU_object@@@3@@3@V?$allocator@U?$pair@QEBU_object@@V?$vector@PEAU_object@@V?$allocator@PEAU_object@@@std@@@std@@@std@@@3@$0A@@std@@@std@@IEBA?AU?$_Hash_find_last_result@PEAU?$_List_node@U?$pair@QEBU_object@@V?$vector@PEAU_object@@V?$allocator@PEAU_object@@@std@@@std@@@std@@PEAX@std@@@1@AEBQEBU_object@@_K@Z
    ??$_Find_last@Vtype_index@std@@@?$_Hash@V?$_Umap_traits@Vtype_index@std@@PEAUtype_info@detail@pybind11@@V?$_Uhash_compare@Vtype_index@std@@U?$hash@Vtype_index@std@@@2@U?$equal_to@Vtype_index@std@@@2@@2@V?$allocator@U?$pair@$$CBVtype_index@std@@PEAUtype_info@detail@pybind11@@@std@@@2@$0A@@std@@@std@@IEBA?AU?$_Hash_find_last_result@PEAU?$_List_node@U?$pair@$$CBVtype_index@std@@PEAUtype_info@detail@pybind11@@@std@@PEAX@std@@@1@AEBVtype_index@1@_K@Z
    ??$_Find_last@Vtype_index@std@@@?$_Hash@V?$_Umap_traits@Vtype_index@std@@V?$vector@P6A_NPEAU_object@@AEAPEAX@ZV?$allocator@P6A_NPEAU_object@@AEAPEAX@Z@std@@@2@V?$_Uhash_compare@Vtype_index@std@@U?$hash@Vtype_index@std@@@2@U?$equal_to@Vtype_index@std@@@2@@2@V?$allocator@U?$pair@$$CBVtype_index@std@@V?$vector@P6A_NPEAU_object@@AEAPEAX@ZV?$allocator@P6A_NPEAU_object@@AEAPEAX@Z@std@@@2@@std@@@2@$0A@@std@@@std@@IEBA?AU?$_Hash_find_last_result@PEAU?$_List_node@U?$pair@$$CBVtype_index@std@@V?$vector@P6A_NPEAU_object@@AEAPEAX@ZV?$allocator@P6A_NPEAU_object@@AEAPEAX@Z@std@@@2@@std@@PEAX@std@@@1@AEBVtype_index@1@_K@Z
    ??$_Fnv1a_append_value@PEAU_typeobject@@@std@@YA_K_KAEBQEAU_typeobject@@@Z
    ??$_Fnv1a_append_value@PEBU_object@@@std@@YA_K_KAEBQEBU_object@@@Z
    ??$_Fnv1a_append_value@PEBX@std@@YA_K_KAEBQEBX@Z
    ??$_Free_non_head@V?$allocator@U?$_List_node@PEAU_object@@PEAX@std@@@std@@@?$_List_node@PEAU_object@@PEAX@std@@SAXAEAV?$allocator@U?$_List_node@PEAU_object@@PEAX@std@@@1@PEAU01@@Z
    ??$_Free_non_head@V?$allocator@U?$_List_node@U?$pair@$$CBV?$basic_string@DU?$char_traits@D@std@@V?$allocator@D@2@@std@@PEAX@std@@PEAX@std@@@std@@@?$_List_node@U?$pair@$$CBV?$basic_string@DU?$char_traits@D@std@@V?$allocator@D@2@@std@@PEAX@std@@PEAX@std@@SAXAEAV?$allocator@U?$_List_node@U?$pair@$$CBV?$basic_string@DU?$char_traits@D@std@@V?$allocator@D@2@@std@@PEAX@std@@PEAX@std@@@1@PEAU01@@Z
    ??$_Free_non_head@V?$allocator@U?$_List_node@U?$pair@$$CBVtype_index@std@@PEAUtype_info@detail@pybind11@@@std@@PEAX@std@@@std@@@?$_List_node@U?$pair@$$CBVtype_index@std@@PEAUtype_info@detail@pybind11@@@std@@PEAX@std@@SAXAEAV?$allocator@U?$_List_node@U?$pair@$$CBVtype_index@std@@PEAUtype_info@detail@pybind11@@@std@@PEAX@std@@@1@PEAU01@@Z
    ??$_Free_non_head@V?$allocator@U?$_List_node@U?$pair@$$CBVtype_index@std@@V?$vector@P6A_NPEAU_object@@AEAPEAX@ZV?$allocator@P6A_NPEAU_object@@AEAPEAX@Z@std@@@2@@std@@PEAX@std@@@std@@@?$_List_node@U?$pair@$$CBVtype_index@std@@V?$vector@P6A_NPEAU_object@@AEAPEAX@ZV?$allocator@P6A_NPEAU_object@@AEAPEAX@Z@std@@@2@@std@@PEAX@std@@SAXAEAV?$allocator@U?$_List_node@U?$pair@$$CBVtype_index@std@@V?$vector@P6A_NPEAU_object@@AEAPEAX@ZV?$allocator@P6A_NPEAU_object@@AEAPEAX@Z@std@@@2@@std@@PEAX@std@@@1@PEAU01@@Z
    ??$_Free_non_head@V?$allocator@U?$_List_node@U?$pair@PEBU_object@@PEBD@std@@PEAX@std@@@std@@@?$_List_node@U?$pair@PEBU_object@@PEBD@std@@PEAX@std@@SAXAEAV?$allocator@U?$_List_node@U?$pair@PEBU_object@@PEBD@std@@PEAX@std@@@1@PEAU01@@Z
    ??$_Free_non_head@V?$allocator@U?$_List_node@U?$pair@QEAU_typeobject@@V?$vector@PEAUtype_info@detail@pybind11@@V?$allocator@PEAUtype_info@detail@pybind11@@@std@@@std@@@std@@PEAX@std@@@std@@@?$_List_node@U?$pair@QEAU_typeobject@@V?$vector@PEAUtype_info@detail@pybind11@@V?$allocator@PEAUtype_info@detail@pybind11@@@std@@@std@@@std@@PEAX@std@@SAXAEAV?$allocator@U?$_List_node@U?$pair@QEAU_typeobject@@V?$vector@PEAUtype_info@detail@pybind11@@V?$allocator@PEAUtype_info@detail@pybind11@@@std@@@std@@@std@@PEAX@std@@@1@PEAU01@@Z
    ??$_Free_non_head@V?$allocator@U?$_List_node@U?$pair@QEBU_object@@V?$vector@PEAU_object@@V?$allocator@PEAU_object@@@std@@@std@@@std@@PEAX@std@@@std@@@?$_List_node@U?$pair@QEBU_object@@V?$vector@PEAU_object@@V?$allocator@PEAU_object@@@std@@@std@@@std@@PEAX@std@@SAXAEAV?$allocator@U?$_List_node@U?$pair@QEBU_object@@V?$vector@PEAU_object@@V?$allocator@PEAU_object@@@std@@@std@@@std@@PEAX@std@@@1@PEAU01@@Z
    ??$_Free_non_head@V?$allocator@U?$_List_node@U?$pair@QEBXPEAUinstance@detail@pybind11@@@std@@PEAX@std@@@std@@@?$_List_node@U?$pair@QEBXPEAUinstance@detail@pybind11@@@std@@PEAX@std@@SAXAEAV?$allocator@U?$_List_node@U?$pair@QEBXPEAUinstance@detail@pybind11@@@std@@PEAX@std@@@1@PEAU01@@Z
    ??$_Freenode0@V?$allocator@U?$_List_node@PEAU_object@@PEAX@std@@@std@@@?$_List_node@PEAU_object@@PEAX@std@@SAXAEAV?$allocator@U?$_List_node@PEAU_object@@PEAX@std@@@1@PEAU01@@Z
    ??$_Freenode0@V?$allocator@U?$_List_node@U?$pair@$$CBV?$basic_string@DU?$char_traits@D@std@@V?$allocator@D@2@@std@@PEAX@std@@PEAX@std@@@std@@@?$_List_node@U?$pair@$$CBV?$basic_string@DU?$char_traits@D@std@@V?$allocator@D@2@@std@@PEAX@std@@PEAX@std@@SAXAEAV?$allocator@U?$_List_node@U?$pair@$$CBV?$basic_string@DU?$char_traits@D@std@@V?$allocator@D@2@@std@@PEAX@std@@PEAX@std@@@1@PEAU01@@Z
    ??$_Freenode0@V?$allocator@U?$_List_node@U?$pair@$$CBVtype_index@std@@PEAUtype_info@detail@pybind11@@@std@@PEAX@std@@@std@@@?$_List_node@U?$pair@$$CBVtype_index@std@@PEAUtype_info@detail@pybind11@@@std@@PEAX@std@@SAXAEAV?$allocator@U?$_List_node@U?$pair@$$CBVtype_index@std@@PEAUtype_info@detail@pybind11@@@std@@PEAX@std@@@1@PEAU01@@Z
    ??$_Freenode0@V?$allocator@U?$_List_node@U?$pair@$$CBVtype_index@std@@V?$vector@P6A_NPEAU_object@@AEAPEAX@ZV?$allocator@P6A_NPEAU_object@@AEAPEAX@Z@std@@@2@@std@@PEAX@std@@@std@@@?$_List_node@U?$pair@$$CBVtype_index@std@@V?$vector@P6A_NPEAU_object@@AEAPEAX@ZV?$allocator@P6A_NPEAU_object@@AEAPEAX@Z@std@@@2@@std@@PEAX@std@@SAXAEAV?$allocator@U?$_List_node@U?$pair@$$CBVtype_index@std@@V?$vector@P6A_NPEAU_object@@AEAPEAX@ZV?$allocator@P6A_NPEAU_object@@AEAPEAX@Z@std@@@2@@std@@PEAX@std@@@1@PEAU01@@Z
    ??$_Freenode0@V?$allocator@U?$_List_node@U?$pair@PEBU_object@@PEBD@std@@PEAX@std@@@std@@@?$_List_node@U?$pair@PEBU_object@@PEBD@std@@PEAX@std@@SAXAEAV?$allocator@U?$_List_node@U?$pair@PEBU_object@@PEBD@std@@PEAX@std@@@1@PEAU01@@Z
    ??$_Freenode0@V?$allocator@U?$_List_node@U?$pair@QEAU_typeobject@@V?$vector@PEAUtype_info@detail@pybind11@@V?$allocator@PEAUtype_info@detail@pybind11@@@std@@@std@@@std@@PEAX@std@@@std@@@?$_List_node@U?$pair@QEAU_typeobject@@V?$vector@PEAUtype_info@detail@pybind11@@V?$allocator@PEAUtype_info@detail@pybind11@@@std@@@std@@@std@@PEAX@std@@SAXAEAV?$allocator@U?$_List_node@U?$pair@QEAU_typeobject@@V?$vector@PEAUtype_info@detail@pybind11@@V?$allocator@PEAUtype_info@detail@pybind11@@@std@@@std@@@std@@PEAX@std@@@1@PEAU01@@Z
    ??$_Freenode0@V?$allocator@U?$_List_node@U?$pair@QEBU_object@@V?$vector@PEAU_object@@V?$allocator@PEAU_object@@@std@@@std@@@std@@PEAX@std@@@std@@@?$_List_node@U?$pair@QEBU_object@@V?$vector@PEAU_object@@V?$allocator@PEAU_object@@@std@@@std@@@std@@PEAX@std@@SAXAEAV?$allocator@U?$_List_node@U?$pair@QEBU_object@@V?$vector@PEAU_object@@V?$allocator@PEAU_object@@@std@@@std@@@std@@PEAX@std@@@1@PEAU01@@Z
    ??$_Freenode0@V?$allocator@U?$_List_node@U?$pair@QEBXPEAUinstance@detail@pybind11@@@std@@PEAX@std@@@std@@@?$_List_node@U?$pair@QEBXPEAUinstance@detail@pybind11@@@std@@PEAX@std@@SAXAEAV?$allocator@U?$_List_node@U?$pair@QEBXPEAUinstance@detail@pybind11@@@std@@PEAX@std@@@1@PEAU01@@Z
    ??$_Freenode@V?$allocator@U?$_Flist_node@P6AXVexception_ptr@std@@@ZPEAX@std@@@std@@@?$_Flist_node@P6AXVexception_ptr@std@@@ZPEAX@std@@SAXAEAV?$allocator@U?$_Flist_node@P6AXVexception_ptr@std@@@ZPEAX@std@@@1@PEAU01@@Z
    ??$_Freenode@V?$allocator@U?$_Flist_node@V?$basic_string@DU?$char_traits@D@std@@V?$allocator@D@2@@std@@PEAX@std@@@std@@@?$_Flist_node@V?$basic_string@DU?$char_traits@D@std@@V?$allocator@D@2@@std@@PEAX@std@@SAXAEAV?$allocator@U?$_Flist_node@V?$basic_string@DU?$char_traits@D@std@@V?$allocator@D@2@@std@@PEAX@std@@@1@PEAU01@@Z
    ??$_Freenode@V?$allocator@U?$_List_node@PEAU_object@@PEAX@std@@@std@@@?$_List_node@PEAU_object@@PEAX@std@@SAXAEAV?$allocator@U?$_List_node@PEAU_object@@PEAX@std@@@1@PEAU01@@Z
    ??$_Freenode@V?$allocator@U?$_List_node@U?$pair@$$CBV?$basic_string@DU?$char_traits@D@std@@V?$allocator@D@2@@std@@PEAX@std@@PEAX@std@@@std@@@?$_List_node@U?$pair@$$CBV?$basic_string@DU?$char_traits@D@std@@V?$allocator@D@2@@std@@PEAX@std@@PEAX@std@@SAXAEAV?$allocator@U?$_List_node@U?$pair@$$CBV?$basic_string@DU?$char_traits@D@std@@V?$allocator@D@2@@std@@PEAX@std@@PEAX@std@@@1@PEAU01@@Z
    ??$_Freenode@V?$allocator@U?$_List_node@U?$pair@$$CBVtype_index@std@@PEAUtype_info@detail@pybind11@@@std@@PEAX@std@@@std@@@?$_List_node@U?$pair@$$CBVtype_index@std@@PEAUtype_info@detail@pybind11@@@std@@PEAX@std@@SAXAEAV?$allocator@U?$_List_node@U?$pair@$$CBVtype_index@std@@PEAUtype_info@detail@pybind11@@@std@@PEAX@std@@@1@PEAU01@@Z
    ??$_Freenode@V?$allocator@U?$_List_node@U?$pair@$$CBVtype_index@std@@V?$vector@P6A_NPEAU_object@@AEAPEAX@ZV?$allocator@P6A_NPEAU_object@@AEAPEAX@Z@std@@@2@@std@@PEAX@std@@@std@@@?$_List_node@U?$pair@$$CBVtype_index@std@@V?$vector@P6A_NPEAU_object@@AEAPEAX@ZV?$allocator@P6A_NPEAU_object@@AEAPEAX@Z@std@@@2@@std@@PEAX@std@@SAXAEAV?$allocator@U?$_List_node@U?$pair@$$CBVtype_index@std@@V?$vector@P6A_NPEAU_object@@AEAPEAX@ZV?$allocator@P6A_NPEAU_object@@AEAPEAX@Z@std@@@2@@std@@PEAX@std@@@1@PEAU01@@Z
    ??$_Freenode@V?$allocator@U?$_List_node@U?$pair@PEBU_object@@PEBD@std@@PEAX@std@@@std@@@?$_List_node@U?$pair@PEBU_object@@PEBD@std@@PEAX@std@@SAXAEAV?$allocator@U?$_List_node@U?$pair@PEBU_object@@PEBD@std@@PEAX@std@@@1@PEAU01@@Z
    ??$_Freenode@V?$allocator@U?$_List_node@U?$pair@QEAU_typeobject@@V?$vector@PEAUtype_info@detail@pybind11@@V?$allocator@PEAUtype_info@detail@pybind11@@@std@@@std@@@std@@PEAX@std@@@std@@@?$_List_node@U?$pair@QEAU_typeobject@@V?$vector@PEAUtype_info@detail@pybind11@@V?$allocator@PEAUtype_info@detail@pybind11@@@std@@@std@@@std@@PEAX@std@@SAXAEAV?$allocator@U?$_List_node@U?$pair@QEAU_typeobject@@V?$vector@PEAUtype_info@detail@pybind11@@V?$allocator@PEAUtype_info@detail@pybind11@@@std@@@std@@@std@@PEAX@std@@@1@PEAU01@@Z
    ??$_Freenode@V?$allocator@U?$_List_node@U?$pair@QEBU_object@@V?$vector@PEAU_object@@V?$allocator@PEAU_object@@@std@@@std@@@std@@PEAX@std@@@std@@@?$_List_node@U?$pair@QEBU_object@@V?$vector@PEAU_object@@V?$allocator@PEAU_object@@@std@@@std@@@std@@PEAX@std@@SAXAEAV?$allocator@U?$_List_node@U?$pair@QEBU_object@@V?$vector@PEAU_object@@V?$allocator@PEAU_object@@@std@@@std@@@std@@PEAX@std@@@1@PEAU01@@Z
    ??$_Freenode@V?$allocator@U?$_List_node@U?$pair@QEBXPEAUinstance@detail@pybind11@@@std@@PEAX@std@@@std@@@?$_List_node@U?$pair@QEBXPEAUinstance@detail@pybind11@@@std@@PEAX@std@@SAXAEAV?$allocator@U?$_List_node@U?$pair@QEBXPEAUinstance@detail@pybind11@@@std@@PEAX@std@@@1@PEAU01@@Z
    ??$_Get_size_of_n@$00@std@@YA_K_K@Z
    ??$_Get_size_of_n@$03@std@@YA_K_K@Z
    ??$_Get_size_of_n@$07@std@@YA_K_K@Z
    ??$_Get_size_of_n@$0BA@@std@@YA_K_K@Z
    ??$_Get_size_of_n@$0BI@@std@@YA_K_K@Z
    ??$_Get_size_of_n@$0CA@@std@@YA_K_K@Z
    ??$_Get_size_of_n@$0DA@@std@@YA_K_K@Z
    ??$_Get_size_of_n@$0DI@@std@@YA_K_K@Z
    ??$_Get_size_of_n@$0GA@@std@@YA_K_K@Z
    ??$_Get_unwrapped@AEAPEAD@std@@YA?A?<decltype-auto>@@AEAPEAD@Z
    ??$_Get_unwrapped@AEAV?$_Vb_iterator@U?$_Wrap_alloc@V?$allocator@I@std@@@std@@@std@@@std@@YA?A?<decltype-auto>@@AEAV?$_Vb_iterator@U?$_Wrap_alloc@V?$allocator@I@std@@@std@@@0@@Z
    ??$_Get_unwrapped@AEBQEAI@std@@YA?A?<decltype-auto>@@AEBQEAI@Z
    ??$_Get_unwrapped@AEBQEAPEAD@std@@YA?A?<decltype-auto>@@AEBQEAPEAD@Z
    ??$_Get_unwrapped@AEBQEAPEAU_typeobject@@@std@@YA?A?<decltype-auto>@@AEBQEAPEAU_typeobject@@@Z
    ??$_Get_unwrapped@AEBQEAPEAUtype_info@detail@pybind11@@@std@@YA?A?<decltype-auto>@@AEBQEAPEAUtype_info@detail@pybind11@@@Z
    ??$_Get_unwrapped@AEBQEAUargument_record@detail@pybind11@@@std@@YA?A?<decltype-auto>@@AEBQEAUargument_record@detail@pybind11@@@Z
    ??$_Get_unwrapped@AEBQEAUfunction_call@detail@pybind11@@@std@@YA?A?<decltype-auto>@@AEBQEAUfunction_call@detail@pybind11@@@Z
    ??$_Get_unwrapped@AEBQEAV?$_List_unchecked_const_iterator@V?$_List_val@U?$_List_simple_types@PEAU_object@@@std@@@std@@U_Iterator_base0@2@@std@@@std@@YA?A?<decltype-auto>@@AEBQEAV?$_List_unchecked_const_iterator@V?$_List_val@U?$_List_simple_types@PEAU_object@@@std@@@std@@U_Iterator_base0@2@@0@@Z
    ??$_Get_unwrapped@AEBQEAV?$_List_unchecked_const_iterator@V?$_List_val@U?$_List_simple_types@U?$pair@PEBU_object@@PEBD@std@@@std@@@std@@U_Iterator_base0@2@@std@@@std@@YA?A?<decltype-auto>@@AEBQEAV?$_List_unchecked_const_iterator@V?$_List_val@U?$_List_simple_types@U?$pair@PEBU_object@@PEBD@std@@@std@@@std@@U_Iterator_base0@2@@0@@Z
    ??$_Get_unwrapped@AEBQEAV?$_List_unchecked_iterator@V?$_List_val@U?$_List_simple_types@U?$pair@$$CBV?$basic_string@DU?$char_traits@D@std@@V?$allocator@D@2@@std@@PEAX@std@@@std@@@std@@@std@@@std@@YA?A?<decltype-auto>@@AEBQEAV?$_List_unchecked_iterator@V?$_List_val@U?$_List_simple_types@U?$pair@$$CBV?$basic_string@DU?$char_traits@D@std@@V?$allocator@D@2@@std@@PEAX@std@@@std@@@std@@@0@@Z
    ??$_Get_unwrapped@AEBQEAV?$_List_unchecked_iterator@V?$_List_val@U?$_List_simple_types@U?$pair@$$CBVtype_index@std@@PEAUtype_info@detail@pybind11@@@std@@@std@@@std@@@std@@@std@@YA?A?<decltype-auto>@@AEBQEAV?$_List_unchecked_iterator@V?$_List_val@U?$_List_simple_types@U?$pair@$$CBVtype_index@std@@PEAUtype_info@detail@pybind11@@@std@@@std@@@std@@@0@@Z
    ??$_Get_unwrapped@AEBQEAV?$_List_unchecked_iterator@V?$_List_val@U?$_List_simple_types@U?$pair@$$CBVtype_index@std@@V?$vector@P6A_NPEAU_object@@AEAPEAX@ZV?$allocator@P6A_NPEAU_object@@AEAPEAX@Z@std@@@2@@std@@@std@@@std@@@std@@@std@@YA?A?<decltype-auto>@@AEBQEAV?$_List_unchecked_iterator@V?$_List_val@U?$_List_simple_types@U?$pair@$$CBVtype_index@std@@V?$vector@P6A_NPEAU_object@@AEAPEAX@ZV?$allocator@P6A_NPEAU_object@@AEAPEAX@Z@std@@@2@@std@@@std@@@std@@@0@@Z
    ??$_Get_unwrapped@AEBQEAV?$_List_unchecked_iterator@V?$_List_val@U?$_List_simple_types@U?$pair@QEAU_typeobject@@V?$vector@PEAUtype_info@detail@pybind11@@V?$allocator@PEAUtype_info@detail@pybind11@@@std@@@std@@@std@@@std@@@std@@@std@@@std@@YA?A?<decltype-auto>@@AEBQEAV?$_List_unchecked_iterator@V?$_List_val@U?$_List_simple_types@U?$pair@QEAU_typeobject@@V?$vector@PEAUtype_info@detail@pybind11@@V?$allocator@PEAUtype_info@detail@pybind11@@@std@@@std@@@std@@@std@@@std@@@0@@Z
    ??$_Get_unwrapped@AEBQEAV?$_List_unchecked_iterator@V?$_List_val@U?$_List_simple_types@U?$pair@QEBU_object@@V?$vector@PEAU_object@@V?$allocator@PEAU_object@@@std@@@std@@@std@@@std@@@std@@@std@@@std@@YA?A?<decltype-auto>@@AEBQEAV?$_List_unchecked_iterator@V?$_List_val@U?$_List_simple_types@U?$pair@QEBU_object@@V?$vector@PEAU_object@@V?$allocator@PEAU_object@@@std@@@std@@@std@@@std@@@std@@@0@@Z
    ??$_Get_unwrapped@AEBQEAV?$_List_unchecked_iterator@V?$_List_val@U?$_List_simple_types@U?$pair@QEBXPEAUinstance@detail@pybind11@@@std@@@std@@@std@@@std@@@std@@YA?A?<decltype-auto>@@AEBQEAV?$_List_unchecked_iterator@V?$_List_val@U?$_List_simple_types@U?$pair@QEBXPEAUinstance@detail@pybind11@@@std@@@std@@@std@@@0@@Z
    ??$_Get_unwrapped@AEBQEAVhandle@pybind11@@@std@@YA?A?<decltype-auto>@@AEBQEAVhandle@pybind11@@@Z
    ??$_Get_unwrapped@PEAN@std@@YA?A?<decltype-auto>@@$$QEAPEAN@Z
    ??$_Get_unwrapped_n@AEAV?$_Vb_iterator@U?$_Wrap_alloc@V?$allocator@I@std@@@std@@@std@@_J@std@@YA?A?<decltype-auto>@@AEAV?$_Vb_iterator@U?$_Wrap_alloc@V?$allocator@I@std@@@std@@@0@_J@Z
    ??$_Get_unwrapped_n@V?$_Vb_iterator@U?$_Wrap_alloc@V?$allocator@I@std@@@std@@@std@@_J@std@@YA?A?<decltype-auto>@@$$QEAV?$_Vb_iterator@U?$_Wrap_alloc@V?$allocator@I@std@@@std@@@0@_J@Z
    ??$_Hash_representation@PEAU_typeobject@@@std@@YA_KAEBQEAU_typeobject@@@Z
    ??$_Hash_representation@PEBU_object@@@std@@YA_KAEBQEBU_object@@@Z
    ??$_Hash_representation@PEBX@std@@YA_KAEBQEBX@Z
    ??$_Idl_distance@V?$_Vb_iterator@U?$_Wrap_alloc@V?$allocator@I@std@@@std@@@std@@V12@@std@@YA?A?<auto>@@AEBV?$_Vb_iterator@U?$_Wrap_alloc@V?$allocator@I@std@@@std@@@0@0@Z
    ??$_Insert_after@P6AXVexception_ptr@std@@@Z@?$forward_list@P6AXVexception_ptr@std@@@ZV?$allocator@P6AXVexception_ptr@std@@@Z@2@@std@@AEAAXPEAU?$_Flist_node@P6AXVexception_ptr@std@@@ZPEAX@1@$$QEAP6AXVexception_ptr@1@@Z@Z
    ??$_Integral_to_string@DH@std@@YA?AV?$basic_string@DU?$char_traits@D@std@@V?$allocator@D@2@@0@H@Z
    ??$_Integral_to_string@D_J@std@@YA?AV?$basic_string@DU?$char_traits@D@std@@V?$allocator@D@2@@0@_J@Z
    ??$_Is_all_bits_zero@I@std@@YA_NAEBI@Z
    ??$_Is_all_bits_zero@N@std@@YA_NAEBN@Z
    ??$_Kfn@$$CBVtype_index@std@@PEAUtype_info@detail@pybind11@@@?$_Umap_traits@Vtype_index@std@@PEAUtype_info@detail@pybind11@@V?$_Uhash_compare@Vtype_index@std@@U?$hash@Vtype_index@std@@@2@U?$equal_to@Vtype_index@std@@@2@@2@V?$allocator@U?$pair@$$CBVtype_index@std@@PEAUtype_info@detail@pybind11@@@std@@@2@$0A@@std@@SAAEBVtype_index@1@AEBU?$pair@$$CBVtype_index@std@@PEAUtype_info@detail@pybind11@@@1@@Z
    ??$_Kfn@$$CBVtype_index@std@@V?$vector@P6A_NPEAU_object@@AEAPEAX@ZV?$allocator@P6A_NPEAU_object@@AEAPEAX@Z@std@@@2@@?$_Umap_traits@Vtype_index@std@@V?$vector@P6A_NPEAU_object@@AEAPEAX@ZV?$allocator@P6A_NPEAU_object@@AEAPEAX@Z@std@@@2@V?$_Uhash_compare@Vtype_index@std@@U?$hash@Vtype_index@std@@@2@U?$equal_to@Vtype_index@std@@@2@@2@V?$allocator@U?$pair@$$CBVtype_index@std@@V?$vector@P6A_NPEAU_object@@AEAPEAX@ZV?$allocator@P6A_NPEAU_object@@AEAPEAX@Z@std@@@2@@std@@@2@$0A@@std@@SAAEBVtype_index@1@AEBU?$pair@$$CBVtype_index@std@@V?$vector@P6A_NPEAU_object@@AEAPEAX@ZV?$allocator@P6A_NPEAU_object@@AEAPEAX@Z@std@@@2@@1@@Z
    ??$_Kfn@QEAU_typeobject@@V?$vector@PEAUtype_info@detail@pybind11@@V?$allocator@PEAUtype_info@detail@pybind11@@@std@@@std@@@?$_Umap_traits@PEAU_typeobject@@V?$vector@PEAUtype_info@detail@pybind11@@V?$allocator@PEAUtype_info@detail@pybind11@@@std@@@std@@V?$_Uhash_compare@PEAU_typeobject@@U?$hash@PEAU_typeobject@@@std@@U?$equal_to@PEAU_typeobject@@@3@@3@V?$allocator@U?$pair@QEAU_typeobject@@V?$vector@PEAUtype_info@detail@pybind11@@V?$allocator@PEAUtype_info@detail@pybind11@@@std@@@std@@@std@@@3@$0A@@std@@SAAEBQEAU_typeobject@@AEBU?$pair@QEAU_typeobject@@V?$vector@PEAUtype_info@detail@pybind11@@V?$allocator@PEAUtype_info@detail@pybind11@@@std@@@std@@@1@@Z
    ??$_Kfn@QEBU_object@@V?$vector@PEAU_object@@V?$allocator@PEAU_object@@@std@@@std@@@?$_Umap_traits@PEBU_object@@V?$vector@PEAU_object@@V?$allocator@PEAU_object@@@std@@@std@@V?$_Uhash_compare@PEBU_object@@U?$hash@PEBU_object@@@std@@U?$equal_to@PEBU_object@@@3@@3@V?$allocator@U?$pair@QEBU_object@@V?$vector@PEAU_object@@V?$allocator@PEAU_object@@@std@@@std@@@std@@@3@$0A@@std@@SAAEBQEBU_object@@AEBU?$pair@QEBU_object@@V?$vector@PEAU_object@@V?$allocator@PEAU_object@@@std@@@std@@@1@@Z
    ??$_Kfn@QEBXPEAUinstance@detail@pybind11@@@?$_Umap_traits@PEBXPEAUinstance@detail@pybind11@@V?$_Uhash_compare@PEBXU?$hash@PEBX@std@@U?$equal_to@PEBX@2@@std@@V?$allocator@U?$pair@QEBXPEAUinstance@detail@pybind11@@@std@@@5@$00@std@@SAAEBQEBXAEBU?$pair@QEBXPEAUinstance@detail@pybind11@@@1@@Z
    ??$_Max_limit@_J@std@@YA_JXZ
    ??$_Move_backward_unchecked@PEAPEAUtype_info@detail@pybind11@@PEAPEAU123@@std@@YAPEAPEAUtype_info@detail@pybind11@@PEAPEAU123@00@Z
    ??$_Move_unchecked@PEAIPEAI@std@@YAPEAIPEAI00@Z
    ??$_Pocma@V?$allocator@D@std@@@std@@YAXAEAV?$allocator@D@0@0@Z
    ??$_Pocma@V?$allocator@PEAU_object@@@std@@@std@@YAXAEAV?$allocator@PEAU_object@@@0@0@Z
    ??$_Pocs@V?$allocator@I@std@@@std@@YAXAEAV?$allocator@I@0@0@Z
    ??$_Reallocate@$00@?$vector@Uargument_record@detail@pybind11@@V?$allocator@Uargument_record@detail@pybind11@@@std@@@std@@AEAAXAEA_K@Z
    ??$_Reallocate@$0A@@?$vector@IV?$allocator@I@std@@@std@@AEAAXAEA_K@Z
    ??$_Reallocate@$0A@@?$vector@Vhandle@pybind11@@V?$allocator@Vhandle@pybind11@@@std@@@std@@AEAAXAEA_K@Z
    ??$_Reallocate_for@V<lambda_1>@?0??assign@?$basic_string@DU?$char_traits@D@std@@V?$allocator@D@2@@std@@QEAAAEAV34@QEBD_K@Z@PEBD@?$basic_string@DU?$char_traits@D@std@@V?$allocator@D@2@@std@@AEAAAEAV01@_KV<lambda_1>@?0??assign@01@QEAAAEAV01@QEBD0@Z@PEBD@Z
    ??$_Reallocate_grow_by@V<lambda_1>@?0??append@?$basic_string@DU?$char_traits@D@std@@V?$allocator@D@2@@std@@QEAAAEAV34@QEBD_K@Z@PEBD_K@?$basic_string@DU?$char_traits@D@std@@V?$allocator@D@2@@std@@AEAAAEAV01@_KV<lambda_1>@?0??append@01@QEAAAEAV01@QEBD0@Z@PEBD_K@Z
    ??$_Reallocate_grow_by@V<lambda_1>@?0??insert@?$basic_string@DU?$char_traits@D@std@@V?$allocator@D@2@@std@@QEAAAEAV34@_KQEBD0@Z@_KPEBD_K@?$basic_string@DU?$char_traits@D@std@@V?$allocator@D@2@@std@@AEAAAEAV01@_KV<lambda_1>@?0??insert@01@QEAAAEAV01@0QEBD0@Z@_KPEBD3@Z
    ??$_Reallocate_grow_by@V<lambda_1>@?0??push_back@?$basic_string@DU?$char_traits@D@std@@V?$allocator@D@2@@std@@QEAAXD@Z@D@?$basic_string@DU?$char_traits@D@std@@V?$allocator@D@2@@std@@AEAAAEAV01@_KV<lambda_1>@?0??push_back@01@QEAAXD@Z@D@Z
    ??$_Resize@I@?$vector@IV?$allocator@I@std@@@std@@AEAAX_KAEBI@Z
    ??$_Resize_reallocate@I@?$vector@IV?$allocator@I@std@@@std@@AEAAX_KAEBI@Z
    ??$_Search_vectorized@$$CBD$$CBD@std@@YAPEBDQEBD00_K@Z
    ??$_Seek_wrapped@V?$_Vb_iterator@U?$_Wrap_alloc@V?$allocator@I@std@@@std@@@std@@V12@@std@@YAXAEAV?$_Vb_iterator@U?$_Wrap_alloc@V?$allocator@I@std@@@std@@@0@$$QEAV10@@Z
    ??$_Set_ptr_rep_and_enable_shared@Uerror_fetch_and_normalize@detail@pybind11@@@?$shared_ptr@Uerror_fetch_and_normalize@detail@pybind11@@@std@@AEAAXQEAUerror_fetch_and_normalize@detail@pybind11@@QEAV_Ref_count_base@1@@Z
    ??$_Setpd@PEAUerror_fetch_and_normalize@detail@pybind11@@P6AXPEAU123@@Z@?$shared_ptr@Uerror_fetch_and_normalize@detail@pybind11@@@std@@AEAAXQEAUerror_fetch_and_normalize@detail@pybind11@@P6AXPEAU234@@Z@Z
    ??$_To_address@PEAD@std@@YA?A?<auto>@@AEBQEAD@Z
    ??$_To_address@PEAI@std@@YA?A?<auto>@@AEBQEAI@Z
    ??$_To_address@PEAN@std@@YA?A?<auto>@@AEBQEAN@Z
    ??$_To_address@PEAPEAD@std@@YA?A?<auto>@@AEBQEAPEAD@Z
    ??$_To_address@PEAPEAU_typeobject@@@std@@YA?A?<auto>@@AEBQEAPEAU_typeobject@@@Z
    ??$_To_address@PEAPEAUtype_info@detail@pybind11@@@std@@YA?A?<auto>@@AEBQEAPEAUtype_info@detail@pybind11@@@Z
    ??$_To_address@PEAUargument_record@detail@pybind11@@@std@@YA?A?<auto>@@AEBQEAUargument_record@detail@pybind11@@@Z
    ??$_To_address@PEAVhandle@pybind11@@@std@@YA?A?<auto>@@AEBQEAVhandle@pybind11@@@Z
    ??$_To_address@PEBD@std@@YA?A?<auto>@@AEBQEBD@Z
    ??$_Traits_find@U?$char_traits@D@std@@@std@@YA_KQEBD_K101@Z
    ??$_Traits_find_ch@U?$char_traits@D@std@@@std@@YA_KQEBD_K1D@Z
    ??$_Traits_find_first_not_of@U?$char_traits@D@std@@@std@@YA_KQEBD_K101@Z
    ??$_Traits_find_last_not_of@U?$char_traits@D@std@@@std@@YA_KQEBD_K101@Z
    ??$_Traits_rfind@U?$char_traits@D@std@@@std@@YA_KQEBD_K101@Z
    ??$_Try_emplace@AEBQEAU_typeobject@@$$V@?$_Hash@V?$_Umap_traits@PEAU_typeobject@@V?$vector@PEAUtype_info@detail@pybind11@@V?$allocator@PEAUtype_info@detail@pybind11@@@std@@@std@@V?$_Uhash_compare@PEAU_typeobject@@U?$hash@PEAU_typeobject@@@std@@U?$equal_to@PEAU_typeobject@@@3@@3@V?$allocator@U?$pair@QEAU_typeobject@@V?$vector@PEAUtype_info@detail@pybind11@@V?$allocator@PEAUtype_info@detail@pybind11@@@std@@@std@@@std@@@3@$0A@@std@@@std@@IEAA?AU?$pair@PEAU?$_List_node@U?$pair@QEAU_typeobject@@V?$vector@PEAUtype_info@detail@pybind11@@V?$allocator@PEAUtype_info@detail@pybind11@@@std@@@std@@@std@@PEAX@std@@_N@1@AEBQEAU_typeobject@@@Z
    ??$_Tuple_get@$0A@AEBQEAU_typeobject@@@std@@YA?A?<auto>@@$$QEAV?$tuple@AEBQEAU_typeobject@@@0@@Z
    ??$_UIntegral_to_buff@DI@std@@YAPEADPEADI@Z
    ??$_UIntegral_to_buff@D_K@std@@YAPEADPEAD_K@Z
    ??$_UIntegral_to_string@D_K@std@@YA?AV?$basic_string@DU?$char_traits@D@std@@V?$allocator@D@2@@0@_K@Z
    ??$_Unfancy@D@std@@YAPEADPEAD@Z
    ??$_Unfancy@I@std@@YAPEAIPEAI@Z
    ??$_Unfancy@N@std@@YAPEANPEAN@Z
    ??$_Unfancy@PEAD@std@@YAPEAPEADPEAPEAD@Z
    ??$_Unfancy@PEAU_typeobject@@@std@@YAPEAPEAU_typeobject@@PEAPEAU1@@Z
    ??$_Unfancy@PEAUtype_info@detail@pybind11@@@std@@YAPEAPEAUtype_info@detail@pybind11@@PEAPEAU123@@Z
    ??$_Unfancy@Uargument_record@detail@pybind11@@@std@@YAPEAUargument_record@detail@pybind11@@PEAU123@@Z
    ??$_Unfancy@Ufunction_call@detail@pybind11@@@std@@YAPEAUfunction_call@detail@pybind11@@PEAU123@@Z
    ??$_Unfancy@Vhandle@pybind11@@@std@@YAPEAVhandle@pybind11@@PEAV12@@Z
    ??$_Unfancy_maybe_null@I@std@@YAPEAIPEAI@Z
    ??$_Unfancy_maybe_null@N@std@@YAPEANPEAN@Z
    ??$_Uninitialized_copy@PEANPEANV?$allocator@N@std@@@std@@YAPEANPEAN00AEAV?$allocator@N@0@@Z
    ??$_Uninitialized_fill_n@V?$allocator@I@std@@@std@@YAPEAIPEAI_KAEBIAEAV?$allocator@I@0@@Z
    ??$_Uninitialized_fill_n@V?$allocator@N@std@@@std@@YAPEANPEAN_KAEBNAEAV?$allocator@N@0@@Z
    ??$_Uninitialized_move@PEAIV?$allocator@I@std@@@std@@YAPEAIQEAI0PEAIAEAV?$allocator@I@0@@Z
    ??$_Uninitialized_move@PEAPEADV?$allocator@PEAD@std@@@std@@YAPEAPEADQEAPEAD0PEAPEADAEAV?$allocator@PEAD@0@@Z
    ??$_Uninitialized_move@PEAPEAU_typeobject@@V?$allocator@PEAU_typeobject@@@std@@@std@@YAPEAPEAU_typeobject@@QEAPEAU1@0PEAPEAU1@AEAV?$allocator@PEAU_typeobject@@@0@@Z
    ??$_Uninitialized_move@PEAPEAUtype_info@detail@pybind11@@V?$allocator@PEAUtype_info@detail@pybind11@@@std@@@std@@YAPEAPEAUtype_info@detail@pybind11@@QEAPEAU123@0PEAPEAU123@AEAV?$allocator@PEAUtype_info@detail@pybind11@@@0@@Z
    ??$_Uninitialized_move@PEAUargument_record@detail@pybind11@@V?$allocator@Uargument_record@detail@pybind11@@@std@@@std@@YAPEAUargument_record@detail@pybind11@@QEAU123@0PEAU123@AEAV?$allocator@Uargument_record@detail@pybind11@@@0@@Z
    ??$_Uninitialized_move@PEAUfunction_call@detail@pybind11@@V?$allocator@Ufunction_call@detail@pybind11@@@std@@@std@@YAPEAUfunction_call@detail@pybind11@@QEAU123@0PEAU123@AEAV?$allocator@Ufunction_call@detail@pybind11@@@0@@Z
    ??$_Uninitialized_move@PEAVhandle@pybind11@@V?$allocator@Vhandle@pybind11@@@std@@@std@@YAPEAVhandle@pybind11@@QEAV12@0PEAV12@AEAV?$allocator@Vhandle@pybind11@@@0@@Z
    ??$call@$$CBV?$tuple@V?$vector@NV?$allocator@N@std@@@std@@V12@@std@@Uvoid_type@detail@pybind11@@AEAP6A?BV12@JNNNNNNNNNJNJJNN@Z@?$argument_loader@JNNNNNNNNNJNJJNN@detail@pybind11@@QEHAA?BV?$tuple@V?$vector@NV?$allocator@N@std@@@std@@V12@@std@@AEAP6A?BV34@JNNNNNNNNNJNJJNN@Z@Z
    ??$call@$$CBV?$tuple@V?$vector@NV?$allocator@N@std@@@std@@V12@@std@@Uvoid_type@detail@pybind11@@AEAP6A?BV12@NNNNNNNNJNN@Z@?$argument_loader@NNNNNNNNJNN@detail@pybind11@@QEHAA?BV?$tuple@V?$vector@NV?$allocator@N@std@@@std@@V12@@std@@AEAP6A?BV34@NNNNNNNNJNN@Z@Z
    ??$call@XUvoid_type@detail@pybind11@@AEAV<lambda_2>@?0??all_type_info_get_cache@23@YA?AU?$pair@V?$_List_iterator@V?$_List_val@U?$_List_simple_types@U?$pair@QEAU_typeobject@@V?$vector@PEAUtype_info@detail@pybind11@@V?$allocator@PEAUtype_info@detail@pybind11@@@std@@@std@@@std@@@std@@@std@@@std@@_N@std@@PEAU_typeobject@@@Z@@?$argument_loader@Vhandle@pybind11@@@detail@pybind11@@QEHAA?AUvoid_type@12@AEAV<lambda_2>@?0??all_type_info_get_cache@12@YA?AU?$pair@V?$_List_iterator@V?$_List_val@U?$_List_simple_types@U?$pair@QEAU_typeobject@@V?$vector@PEAUtype_info@detail@pybind11@@V?$allocator@PEAUtype_info@detail@pybind11@@@std@@@std@@@std@@@std@@@std@@@std@@_N@std@@PEAU_typeobject@@@Z@@Z
    ??$call_impl@V?$tuple@V?$vector@NV?$allocator@N@std@@@std@@V12@@std@@AEAP6A?BV12@JNNNNNNNNNJNJJNN@Z$0A@$00$01$02$03$04$05$06$07$08$09$0L@$0M@$0N@$0O@$0P@Uvoid_type@detail@pybind11@@@?$argument_loader@JNNNNNNNNNJNJJNN@detail@pybind11@@AEHAA?AV?$tuple@V?$vector@NV?$allocator@N@std@@@std@@V12@@std@@AEAP6A?BV34@JNNNNNNNNNJNJJNN@ZU?$integer_sequence@_K$0A@$00$01$02$03$04$05$06$07$08$09$0L@$0M@$0N@$0O@$0P@@4@$$QEAUvoid_type@12@@Z
    ??$call_impl@V?$tuple@V?$vector@NV?$allocator@N@std@@@std@@V12@@std@@AEAP6A?BV12@NNNNNNNNJNN@Z$0A@$00$01$02$03$04$05$06$07$08$09Uvoid_type@detail@pybind11@@@?$argument_loader@NNNNNNNNJNN@detail@pybind11@@AEHAA?AV?$tuple@V?$vector@NV?$allocator@N@std@@@std@@V12@@std@@AEAP6A?BV34@NNNNNNNNJNN@ZU?$integer_sequence@_K$0A@$00$01$02$03$04$05$06$07$08$09@4@$$QEAUvoid_type@12@@Z
    ??$call_impl@XAEAV<lambda_2>@?0??all_type_info_get_cache@detail@pybind11@@YA?AU?$pair@V?$_List_iterator@V?$_List_val@U?$_List_simple_types@U?$pair@QEAU_typeobject@@V?$vector@PEAUtype_info@detail@pybind11@@V?$allocator@PEAUtype_info@detail@pybind11@@@std@@@std@@@std@@@std@@@std@@@std@@_N@std@@PEAU_typeobject@@@Z@$0A@Uvoid_type@34@@?$argument_loader@Vhandle@pybind11@@@detail@pybind11@@AEHAAXAEAV<lambda_2>@?0??all_type_info_get_cache@12@YA?AU?$pair@V?$_List_iterator@V?$_List_val@U?$_List_simple_types@U?$pair@QEAU_typeobject@@V?$vector@PEAUtype_info@detail@pybind11@@V?$allocator@PEAUtype_info@detail@pybind11@@@std@@@std@@@std@@@std@@@std@@@std@@_N@std@@PEAU_typeobject@@@Z@U?$integer_sequence@_K$0A@@6@$$QEAUvoid_type@12@@Z
    ??$cast@$$CBV?$tuple@V?$vector@NV?$allocator@N@std@@@std@@V12@@std@@@?$tuple_caster@Vtuple@std@@V?$vector@NV?$allocator@N@std@@@2@V32@@detail@pybind11@@SA?AVhandle@2@$$QEBV?$tuple@V?$vector@NV?$allocator@N@std@@@std@@V12@@std@@W4return_value_policy@2@V32@@Z
    ??$cast@$$CBV?$vector@NV?$allocator@N@std@@@std@@@?$list_caster@V?$vector@NV?$allocator@N@std@@@std@@N@detail@pybind11@@SA?AVhandle@2@$$QEBV?$vector@NV?$allocator@N@std@@@std@@W4return_value_policy@2@V32@@Z
    ??$cast@AEAY0EH@$$CBD$0A@@pybind11@@YA?AVobject@0@AEAY0EH@$$CBDW4return_value_policy@0@Vhandle@0@@Z
    ??$cast@N@?$type_caster@NX@detail@pybind11@@SA?AVhandle@2@NW4return_value_policy@2@V32@@Z
    ??$cast@V?$basic_string@DU?$char_traits@D@std@@V?$allocator@D@2@@std@@$0A@@pybind11@@YA?AV?$basic_string@DU?$char_traits@D@std@@V?$allocator@D@2@@std@@AEBVhandle@0@@Z
    ??$cast@V?$basic_string@DU?$char_traits@D@std@@V?$allocator@D@2@@std@@@?$accessor@Ustr_attr@accessor_policies@detail@pybind11@@@detail@pybind11@@QEBA?AV?$basic_string@DU?$char_traits@D@std@@V?$allocator@D@2@@std@@XZ
    ??$cast@V?$basic_string@DU?$char_traits@D@std@@V?$allocator@D@2@@std@@@handle@pybind11@@QEBA?AV?$basic_string@DU?$char_traits@D@std@@V?$allocator@D@2@@std@@XZ
    ??$cast@V?$basic_string@DU?$char_traits@D@std@@V?$allocator@D@2@@std@@@object@pybind11@@QEGBA?AV?$basic_string@DU?$char_traits@D@std@@V?$allocator@D@2@@std@@XZ
    ??$cast@V?$basic_string@DU?$char_traits@D@std@@V?$allocator@D@2@@std@@@object@pybind11@@QEHAA?AV?$basic_string@DU?$char_traits@D@std@@V?$allocator@D@2@@std@@XZ
    ??$cast@V?$basic_string@DU?$char_traits@D@std@@V?$allocator@D@2@@std@@@pybind11@@YA?AV?$basic_string@DU?$char_traits@D@std@@V?$allocator@D@2@@std@@$$QEAVobject@0@@Z
    ??$cast_impl@$$CBV?$tuple@V?$vector@NV?$allocator@N@std@@@std@@V12@@std@@$0A@$00@?$tuple_caster@Vtuple@std@@V?$vector@NV?$allocator@N@std@@@2@V32@@detail@pybind11@@KA?AVhandle@2@$$QEBV?$tuple@V?$vector@NV?$allocator@N@std@@@std@@V12@@std@@W4return_value_policy@2@V32@U?$integer_sequence@_K$0A@$00@5@@Z
    ??$cast_op@J@detail@pybind11@@YA$$QEAJ$$QEAU?$type_caster@JX@01@@Z
    ??$cast_op@N@detail@pybind11@@YA$$QEAN$$QEAU?$type_caster@NX@01@@Z
    ??$cast_op@V?$basic_string@DU?$char_traits@D@std@@V?$allocator@D@2@@std@@@detail@pybind11@@YA$$QEAV?$basic_string@DU?$char_traits@D@std@@V?$allocator@D@2@@std@@$$QEAU?$type_caster@V?$basic_string@DU?$char_traits@D@std@@V?$allocator@D@2@@std@@X@01@@Z
    ??$cast_op@Vhandle@pybind11@@@detail@pybind11@@YA$$QEAVhandle@1@$$QEAV?$type_caster@Vhandle@pybind11@@X@01@@Z
    ??$collect_arguments@$00AEBVhandle@pybind11@@X@detail@pybind11@@YA?AV?$simple_collector@$00@01@AEBVhandle@1@@Z
    ??$construct@IAEBI@?$_Default_allocator_traits@V?$allocator@I@std@@@std@@SAXAEAV?$allocator@I@1@QEAIAEBI@Z
    ??$construct@NAEBN@?$_Default_allocator_traits@V?$allocator@N@std@@@std@@SAXAEAV?$allocator@N@1@QEANAEBN@Z
    ??$construct@P6AXVexception_ptr@std@@@ZP6AX0@Z@?$_Default_allocator_traits@V?$allocator@U?$_Flist_node@P6AXVexception_ptr@std@@@ZPEAX@std@@@std@@@std@@SAXAEAV?$allocator@U?$_Flist_node@P6AXVexception_ptr@std@@@ZPEAX@std@@@1@QEAP6AXVexception_ptr@1@@Z$$QEAP6AX1@Z@Z
    ??$construct@PEADAEBQEAD@?$_Default_allocator_traits@V?$allocator@PEAD@std@@@std@@SAXAEAV?$allocator@PEAD@1@QEAPEADAEBQEAD@Z
    ??$construct@PEAU_typeobject@@PEAU1@@?$_Default_allocator_traits@V?$allocator@PEAU_typeobject@@@std@@@std@@SAXAEAV?$allocator@PEAU_typeobject@@@1@QEAPEAU_typeobject@@$$QEAPEAU3@@Z
    ??$construct@PEAUtype_info@detail@pybind11@@AEBQEAU123@@?$_Default_allocator_traits@V?$allocator@PEAUtype_info@detail@pybind11@@@std@@@std@@SAXAEAV?$allocator@PEAUtype_info@detail@pybind11@@@1@QEAPEAUtype_info@detail@pybind11@@AEBQEAU345@@Z
    ??$construct@PEAUtype_info@detail@pybind11@@PEAU123@@?$_Default_allocator_traits@V?$allocator@PEAUtype_info@detail@pybind11@@@std@@@std@@SAXAEAV?$allocator@PEAUtype_info@detail@pybind11@@@1@QEAPEAUtype_info@detail@pybind11@@$$QEAPEAU345@@Z
    ??$construct@U?$pair@QEAU_typeobject@@V?$vector@PEAUtype_info@detail@pybind11@@V?$allocator@PEAUtype_info@detail@pybind11@@@std@@@std@@@std@@AEBUpiecewise_construct_t@2@V?$tuple@AEBQEAU_typeobject@@@2@V?$tuple@$$V@2@@?$_Default_allocator_traits@V?$allocator@U?$_List_node@U?$pair@QEAU_typeobject@@V?$vector@PEAUtype_info@detail@pybind11@@V?$allocator@PEAUtype_info@detail@pybind11@@@std@@@std@@@std@@PEAX@std@@@std@@@std@@SAXAEAV?$allocator@U?$_List_node@U?$pair@QEAU_typeobject@@V?$vector@PEAUtype_info@detail@pybind11@@V?$allocator@PEAUtype_info@detail@pybind11@@@std@@@std@@@std@@PEAX@std@@@1@QEAU?$pair@QEAU_typeobject@@V?$vector@PEAUtype_info@detail@pybind11@@V?$allocator@PEAUtype_info@detail@pybind11@@@std@@@std@@@1@AEBUpiecewise_construct_t@1@$$QEAV?$tuple@AEBQEAU_typeobject@@@1@$$QEAV?$tuple@$$V@1@@Z
    ??$construct@Uargument_record@detail@pybind11@@AEAY04$$CBD$$TVhandle@3@_N_N@?$_Default_allocator_traits@V?$allocator@Uargument_record@detail@pybind11@@@std@@@std@@SAXAEAV?$allocator@Uargument_record@detail@pybind11@@@1@QEAUargument_record@detail@pybind11@@AEAY04$$CBD$$QEA$$T$$QEAVhandle@5@$$QEA_N5@Z
    ??$construct@Uargument_record@detail@pybind11@@AEBQEBD$$TVhandle@3@_NAEB_N@?$_Default_allocator_traits@V?$allocator@Uargument_record@detail@pybind11@@@std@@@std@@SAXAEAV?$allocator@Uargument_record@detail@pybind11@@@1@QEAUargument_record@detail@pybind11@@AEBQEBD$$QEA$$T$$QEAVhandle@5@$$QEA_NAEB_N@Z
    ??$construct@Ufunction_call@detail@pybind11@@U123@@?$_Default_allocator_traits@V?$allocator@Ufunction_call@detail@pybind11@@@std@@@std@@SAXAEAV?$allocator@Ufunction_call@detail@pybind11@@@1@QEAUfunction_call@detail@pybind11@@$$QEAU345@@Z
    ??$construct@Vhandle@pybind11@@AEBV12@@?$_Default_allocator_traits@V?$allocator@Vhandle@pybind11@@@std@@@std@@SAXAEAV?$allocator@Vhandle@pybind11@@@1@QEAVhandle@pybind11@@AEBV34@@Z
    ??$construct@Vhandle@pybind11@@PEAU_object@@@?$_Default_allocator_traits@V?$allocator@Vhandle@pybind11@@@std@@@std@@SAXAEAV?$allocator@Vhandle@pybind11@@@1@QEAVhandle@pybind11@@$$QEAPEAU_object@@@Z
    ??$construct@Vhandle@pybind11@@V12@@?$_Default_allocator_traits@V?$allocator@Vhandle@pybind11@@@std@@@std@@SAXAEAV?$allocator@Vhandle@pybind11@@@1@QEAVhandle@pybind11@@$$QEAV34@@Z
    ??$copy@V?$_Vb_iterator@U?$_Wrap_alloc@V?$allocator@I@std@@@std@@@std@@V12@@std@@YA?AV?$_Vb_iterator@U?$_Wrap_alloc@V?$allocator@I@std@@@std@@@0@V10@00@Z
    ??$copy_backward@V?$_Vb_iterator@U?$_Wrap_alloc@V?$allocator@I@std@@@std@@@std@@V12@@std@@YA?AV?$_Vb_iterator@U?$_Wrap_alloc@V?$allocator@I@std@@@std@@@0@V10@00@Z
    ??$def@P6A?BV?$tuple@V?$vector@NV?$allocator@N@std@@@std@@V12@@std@@JNNNNNNNNNJNJJNN@Z$$BY0GBH@DUarg@pybind11@@U34@U34@U34@U34@U34@U34@U34@U34@U34@U34@U34@U34@U34@U34@U34@@module_@pybind11@@QEAAAEAV01@PEBD$$QEAP6A?BV?$tuple@V?$vector@NV?$allocator@N@std@@@std@@V12@@std@@JNNNNNNNNNJNJJNN@ZAEAY0GBH@$$CBDAEBUarg@1@333333333333333@Z
    ??$def@P6A?BV?$tuple@V?$vector@NV?$allocator@N@std@@@std@@V12@@std@@NNNNNNNNJNN@Z$$BY0DKL@DUarg@pybind11@@U34@U34@U34@U34@U34@U34@U34@U34@U34@U34@@module_@pybind11@@QEAAAEAV01@PEBD$$QEAP6A?BV?$tuple@V?$vector@NV?$allocator@N@std@@@std@@V12@@std@@NNNNNNNNJNN@ZAEAY0DKL@$$CBDAEBUarg@1@3333333333@Z
    ??$destroy@P6AXVexception_ptr@std@@@Z@?$_Default_allocator_traits@V?$allocator@U?$_Flist_node@P6AXVexception_ptr@std@@@ZPEAX@std@@@std@@@std@@SAXAEAV?$allocator@U?$_Flist_node@P6AXVexception_ptr@std@@@ZPEAX@std@@@1@QEAP6AXVexception_ptr@1@@Z@Z
    ??$destroy@PEAU_object@@@?$_Default_allocator_traits@V?$allocator@U?$_List_node@PEAU_object@@PEAX@std@@@std@@@std@@SAXAEAV?$allocator@U?$_List_node@PEAU_object@@PEAX@std@@@1@QEAPEAU_object@@@Z
    ??$destroy@PEAU_typeobject@@@?$_Default_allocator_traits@V?$allocator@PEAU_typeobject@@@std@@@std@@SAXAEAV?$allocator@PEAU_typeobject@@@1@QEAPEAU_typeobject@@@Z
    ??$destroy@PEAUtype_info@detail@pybind11@@@?$_Default_allocator_traits@V?$allocator@PEAUtype_info@detail@pybind11@@@std@@@std@@SAXAEAV?$allocator@PEAUtype_info@detail@pybind11@@@1@QEAPEAUtype_info@detail@pybind11@@@Z
    ??$destroy@U?$pair@$$CBV?$basic_string@DU?$char_traits@D@std@@V?$allocator@D@2@@std@@PEAX@std@@@?$_Default_allocator_traits@V?$allocator@U?$_List_node@U?$pair@$$CBV?$basic_string@DU?$char_traits@D@std@@V?$allocator@D@2@@std@@PEAX@std@@PEAX@std@@@std@@@std@@SAXAEAV?$allocator@U?$_List_node@U?$pair@$$CBV?$basic_string@DU?$char_traits@D@std@@V?$allocator@D@2@@std@@PEAX@std@@PEAX@std@@@1@QEAU?$pair@$$CBV?$basic_string@DU?$char_traits@D@std@@V?$allocator@D@2@@std@@PEAX@1@@Z
    ??$destroy@U?$pair@$$CBVtype_index@std@@PEAUtype_info@detail@pybind11@@@std@@@?$_Default_allocator_traits@V?$allocator@U?$_List_node@U?$pair@$$CBVtype_index@std@@PEAUtype_info@detail@pybind11@@@std@@PEAX@std@@@std@@@std@@SAXAEAV?$allocator@U?$_List_node@U?$pair@$$CBVtype_index@std@@PEAUtype_info@detail@pybind11@@@std@@PEAX@std@@@1@QEAU?$pair@$$CBVtype_index@std@@PEAUtype_info@detail@pybind11@@@1@@Z
    ??$destroy@U?$pair@$$CBVtype_index@std@@V?$vector@P6A_NPEAU_object@@AEAPEAX@ZV?$allocator@P6A_NPEAU_object@@AEAPEAX@Z@std@@@2@@std@@@?$_Default_allocator_traits@V?$allocator@U?$_List_node@U?$pair@$$CBVtype_index@std@@V?$vector@P6A_NPEAU_object@@AEAPEAX@ZV?$allocator@P6A_NPEAU_object@@AEAPEAX@Z@std@@@2@@std@@PEAX@std@@@std@@@std@@SAXAEAV?$allocator@U?$_List_node@U?$pair@$$CBVtype_index@std@@V?$vector@P6A_NPEAU_object@@AEAPEAX@ZV?$allocator@P6A_NPEAU_object@@AEAPEAX@Z@std@@@2@@std@@PEAX@std@@@1@QEAU?$pair@$$CBVtype_index@std@@V?$vector@P6A_NPEAU_object@@AEAPEAX@ZV?$allocator@P6A_NPEAU_object@@AEAPEAX@Z@std@@@2@@1@@Z
    ??$destroy@U?$pair@PEBU_object@@PEBD@std@@@?$_Default_allocator_traits@V?$allocator@U?$_List_node@U?$pair@PEBU_object@@PEBD@std@@PEAX@std@@@std@@@std@@SAXAEAV?$allocator@U?$_List_node@U?$pair@PEBU_object@@PEBD@std@@PEAX@std@@@1@QEAU?$pair@PEBU_object@@PEBD@1@@Z
    ??$destroy@U?$pair@QEAU_typeobject@@V?$vector@PEAUtype_info@detail@pybind11@@V?$allocator@PEAUtype_info@detail@pybind11@@@std@@@std@@@std@@@?$_Default_allocator_traits@V?$allocator@U?$_List_node@U?$pair@QEAU_typeobject@@V?$vector@PEAUtype_info@detail@pybind11@@V?$allocator@PEAUtype_info@detail@pybind11@@@std@@@std@@@std@@PEAX@std@@@std@@@std@@SAXAEAV?$allocator@U?$_List_node@U?$pair@QEAU_typeobject@@V?$vector@PEAUtype_info@detail@pybind11@@V?$allocator@PEAUtype_info@detail@pybind11@@@std@@@std@@@std@@PEAX@std@@@1@QEAU?$pair@QEAU_typeobject@@V?$vector@PEAUtype_info@detail@pybind11@@V?$allocator@PEAUtype_info@detail@pybind11@@@std@@@std@@@1@@Z
    ??$destroy@U?$pair@QEBU_object@@V?$vector@PEAU_object@@V?$allocator@PEAU_object@@@std@@@std@@@std@@@?$_Default_allocator_traits@V?$allocator@U?$_List_node@U?$pair@QEBU_object@@V?$vector@PEAU_object@@V?$allocator@PEAU_object@@@std@@@std@@@std@@PEAX@std@@@std@@@std@@SAXAEAV?$allocator@U?$_List_node@U?$pair@QEBU_object@@V?$vector@PEAU_object@@V?$allocator@PEAU_object@@@std@@@std@@@std@@PEAX@std@@@1@QEAU?$pair@QEBU_object@@V?$vector@PEAU_object@@V?$allocator@PEAU_object@@@std@@@std@@@1@@Z
    ??$destroy@U?$pair@QEBXPEAUinstance@detail@pybind11@@@std@@@?$_Default_allocator_traits@V?$allocator@U?$_List_node@U?$pair@QEBXPEAUinstance@detail@pybind11@@@std@@PEAX@std@@@std@@@std@@SAXAEAV?$allocator@U?$_List_node@U?$pair@QEBXPEAUinstance@detail@pybind11@@@std@@PEAX@std@@@1@QEAU?$pair@QEBXPEAUinstance@detail@pybind11@@@1@@Z
    ??$destroy@Ufunction_call@detail@pybind11@@@?$_Default_allocator_traits@V?$allocator@Ufunction_call@detail@pybind11@@@std@@@std@@SAXAEAV?$allocator@Ufunction_call@detail@pybind11@@@1@QEAUfunction_call@detail@pybind11@@@Z
    ??$destroy@V?$basic_string@DU?$char_traits@D@std@@V?$allocator@D@2@@std@@@?$_Default_allocator_traits@V?$allocator@U?$_Flist_node@V?$basic_string@DU?$char_traits@D@std@@V?$allocator@D@2@@std@@PEAX@std@@@std@@@std@@SAXAEAV?$allocator@U?$_Flist_node@V?$basic_string@DU?$char_traits@D@std@@V?$allocator@D@2@@std@@PEAX@std@@@1@QEAV?$basic_string@DU?$char_traits@D@std@@V?$allocator@D@2@@1@@Z
    ??$emplace@AEBQEAUtype_info@detail@pybind11@@@?$vector@PEAUtype_info@detail@pybind11@@V?$allocator@PEAUtype_info@detail@pybind11@@@std@@@std@@QEAA?AV?$_Vector_iterator@V?$_Vector_val@U?$_Simple_types@PEAUtype_info@detail@pybind11@@@std@@@std@@@1@V?$_Vector_const_iterator@V?$_Vector_val@U?$_Simple_types@PEAUtype_info@detail@pybind11@@@std@@@std@@@1@AEBQEAUtype_info@detail@pybind11@@@Z
    ??$emplace_back@AEAY04$$CBD$$TVhandle@pybind11@@_N_N@?$vector@Uargument_record@detail@pybind11@@V?$allocator@Uargument_record@detail@pybind11@@@std@@@std@@QEAAAEAUargument_record@detail@pybind11@@AEAY04$$CBD$$QEA$$T$$QEAVhandle@4@$$QEA_N3@Z
    ??$emplace_back@AEBQEBD$$TVhandle@pybind11@@_NAEB_N@?$vector@Uargument_record@detail@pybind11@@V?$allocator@Uargument_record@detail@pybind11@@@std@@@std@@QEAAAEAUargument_record@detail@pybind11@@AEBQEBD$$QEA$$T$$QEAVhandle@4@$$QEA_NAEB_N@Z
    ??$emplace_back@PEAU_object@@@?$vector@Vhandle@pybind11@@V?$allocator@Vhandle@pybind11@@@std@@@std@@QEAAAEAVhandle@pybind11@@$$QEAPEAU_object@@@Z
    ??$end@D$0BF@@std@@YAPEADAEAY0BF@D@Z
    ??$equal_range@X@?$_Hash@V?$_Umap_traits@PEBXPEAUinstance@detail@pybind11@@V?$_Uhash_compare@PEBXU?$hash@PEBX@std@@U?$equal_to@PEBX@2@@std@@V?$allocator@U?$pair@QEBXPEAUinstance@detail@pybind11@@@std@@@5@$00@std@@@std@@QEAA?AU?$pair@V?$_List_iterator@V?$_List_val@U?$_List_simple_types@U?$pair@QEBXPEAUinstance@detail@pybind11@@@std@@@std@@@std@@@std@@V12@@1@AEBQEBX@Z
    ??$erase@V?$_List_iterator@V?$_List_val@U?$_List_simple_types@U?$pair@QEBU_object@@V?$vector@PEAU_object@@V?$allocator@PEAU_object@@@std@@@std@@@std@@@std@@@std@@@std@@$0A@@?$_Hash@V?$_Umap_traits@PEBU_object@@V?$vector@PEAU_object@@V?$allocator@PEAU_object@@@std@@@std@@V?$_Uhash_compare@PEBU_object@@U?$hash@PEBU_object@@@std@@U?$equal_to@PEBU_object@@@3@@3@V?$allocator@U?$pair@QEBU_object@@V?$vector@PEAU_object@@V?$allocator@PEAU_object@@@std@@@std@@@std@@@3@$0A@@std@@@std@@QEAA?AV?$_List_iterator@V?$_List_val@U?$_List_simple_types@U?$pair@QEBU_object@@V?$vector@PEAU_object@@V?$allocator@PEAU_object@@@std@@@std@@@std@@@std@@@std@@@1@V21@@Z
    ??$erase@V?$_List_iterator@V?$_List_val@U?$_List_simple_types@U?$pair@QEBXPEAUinstance@detail@pybind11@@@std@@@std@@@std@@@std@@$0A@@?$_Hash@V?$_Umap_traits@PEBXPEAUinstance@detail@pybind11@@V?$_Uhash_compare@PEBXU?$hash@PEBX@std@@U?$equal_to@PEBX@2@@std@@V?$allocator@U?$pair@QEBXPEAUinstance@detail@pybind11@@@std@@@5@$00@std@@@std@@QEAA?AV?$_List_iterator@V?$_List_val@U?$_List_simple_types@U?$pair@QEBXPEAUinstance@detail@pybind11@@@std@@@std@@@std@@@1@V21@@Z
    ??$exchange@PEAI$$T@std@@YAPEAIAEAPEAI$$QEA$$T@Z
    ??$exchange@PEAU?$_Flist_node@P6AXVexception_ptr@std@@@ZPEAX@std@@$$T@std@@YAPEAU?$_Flist_node@P6AXVexception_ptr@std@@@ZPEAX@0@AEAPEAU10@$$QEA$$T@Z
    ??$exchange@PEAU?$_Flist_node@V?$basic_string@DU?$char_traits@D@std@@V?$allocator@D@2@@std@@PEAX@std@@$$T@std@@YAPEAU?$_Flist_node@V?$basic_string@DU?$char_traits@D@std@@V?$allocator@D@2@@std@@PEAX@0@AEAPEAU10@$$QEA$$T@Z
    ??$exchange@PEAU?$_List_node@U?$pair@QEAU_typeobject@@V?$vector@PEAUtype_info@detail@pybind11@@V?$allocator@PEAUtype_info@detail@pybind11@@@std@@@std@@@std@@PEAX@std@@$$T@std@@YAPEAU?$_List_node@U?$pair@QEAU_typeobject@@V?$vector@PEAUtype_info@detail@pybind11@@V?$allocator@PEAUtype_info@detail@pybind11@@@std@@@std@@@std@@PEAX@0@AEAPEAU10@$$QEA$$T@Z
    ??$exchange@PEAUfunction_record@detail@pybind11@@$$T@std@@YAPEAUfunction_record@detail@pybind11@@AEAPEAU123@$$QEA$$T@Z
    ??$exchange@PEAVhandle@pybind11@@$$T@std@@YAPEAVhandle@pybind11@@AEAPEAV12@$$QEA$$T@Z
    ??$exchange@_K_K@std@@YA_KAEA_K$$QEA_K@Z
    ??$fill@PEAV?$_List_unchecked_const_iterator@V?$_List_val@U?$_List_simple_types@PEAU_object@@@std@@@std@@U_Iterator_base0@2@@std@@V12@@std@@YAXQEAV?$_List_unchecked_const_iterator@V?$_List_val@U?$_List_simple_types@PEAU_object@@@std@@@std@@U_Iterator_base0@2@@0@0AEBV10@@Z
    ??$fill@PEAV?$_List_unchecked_const_iterator@V?$_List_val@U?$_List_simple_types@U?$pair@PEBU_object@@PEBD@std@@@std@@@std@@U_Iterator_base0@2@@std@@V12@@std@@YAXQEAV?$_List_unchecked_const_iterator@V?$_List_val@U?$_List_simple_types@U?$pair@PEBU_object@@PEBD@std@@@std@@@std@@U_Iterator_base0@2@@0@0AEBV10@@Z
    ??$fill@PEAV?$_List_unchecked_iterator@V?$_List_val@U?$_List_simple_types@U?$pair@$$CBV?$basic_string@DU?$char_traits@D@std@@V?$allocator@D@2@@std@@PEAX@std@@@std@@@std@@@std@@V12@@std@@YAXQEAV?$_List_unchecked_iterator@V?$_List_val@U?$_List_simple_types@U?$pair@$$CBV?$basic_string@DU?$char_traits@D@std@@V?$allocator@D@2@@std@@PEAX@std@@@std@@@std@@@0@0AEBV10@@Z
    ??$fill@PEAV?$_List_unchecked_iterator@V?$_List_val@U?$_List_simple_types@U?$pair@$$CBVtype_index@std@@PEAUtype_info@detail@pybind11@@@std@@@std@@@std@@@std@@V12@@std@@YAXQEAV?$_List_unchecked_iterator@V?$_List_val@U?$_List_simple_types@U?$pair@$$CBVtype_index@std@@PEAUtype_info@detail@pybind11@@@std@@@std@@@std@@@0@0AEBV10@@Z
    ??$fill@PEAV?$_List_unchecked_iterator@V?$_List_val@U?$_List_simple_types@U?$pair@$$CBVtype_index@std@@V?$vector@P6A_NPEAU_object@@AEAPEAX@ZV?$allocator@P6A_NPEAU_object@@AEAPEAX@Z@std@@@2@@std@@@std@@@std@@@std@@V12@@std@@YAXQEAV?$_List_unchecked_iterator@V?$_List_val@U?$_List_simple_types@U?$pair@$$CBVtype_index@std@@V?$vector@P6A_NPEAU_object@@AEAPEAX@ZV?$allocator@P6A_NPEAU_object@@AEAPEAX@Z@std@@@2@@std@@@std@@@std@@@0@0AEBV10@@Z
    ??$fill@PEAV?$_List_unchecked_iterator@V?$_List_val@U?$_List_simple_types@U?$pair@QEAU_typeobject@@V?$vector@PEAUtype_info@detail@pybind11@@V?$allocator@PEAUtype_info@detail@pybind11@@@std@@@std@@@std@@@std@@@std@@@std@@V12@@std@@YAXQEAV?$_List_unchecked_iterator@V?$_List_val@U?$_List_simple_types@U?$pair@QEAU_typeobject@@V?$vector@PEAUtype_info@detail@pybind11@@V?$allocator@PEAUtype_info@detail@pybind11@@@std@@@std@@@std@@@std@@@std@@@0@0AEBV10@@Z
    ??$fill@PEAV?$_List_unchecked_iterator@V?$_List_val@U?$_List_simple_types@U?$pair@QEBU_object@@V?$vector@PEAU_object@@V?$allocator@PEAU_object@@@std@@@std@@@std@@@std@@@std@@@std@@V12@@std@@YAXQEAV?$_List_unchecked_iterator@V?$_List_val@U?$_List_simple_types@U?$pair@QEBU_object@@V?$vector@PEAU_object@@V?$allocator@PEAU_object@@@std@@@std@@@std@@@std@@@std@@@0@0AEBV10@@Z
    ??$fill@PEAV?$_List_unchecked_iterator@V?$_List_val@U?$_List_simple_types@U?$pair@QEBXPEAUinstance@detail@pybind11@@@std@@@std@@@std@@@std@@V12@@std@@YAXQEAV?$_List_unchecked_iterator@V?$_List_val@U?$_List_simple_types@U?$pair@QEBXPEAUinstance@detail@pybind11@@@std@@@std@@@std@@@0@0AEBV10@@Z
    ??$fill_n@V?$_Vb_iterator@U?$_Wrap_alloc@V?$allocator@I@std@@@std@@@std@@_K_N@std@@YA?AV?$_Vb_iterator@U?$_Wrap_alloc@V?$allocator@I@std@@@std@@@0@V10@_KAEB_N@Z
    ??$find@X@?$_Hash@V?$_Umap_traits@PEAU_typeobject@@V?$vector@PEAUtype_info@detail@pybind11@@V?$allocator@PEAUtype_info@detail@pybind11@@@std@@@std@@V?$_Uhash_compare@PEAU_typeobject@@U?$hash@PEAU_typeobject@@@std@@U?$equal_to@PEAU_typeobject@@@3@@3@V?$allocator@U?$pair@QEAU_typeobject@@V?$vector@PEAUtype_info@detail@pybind11@@V?$allocator@PEAUtype_info@detail@pybind11@@@std@@@std@@@std@@@3@$0A@@std@@@std@@QEAA?AV?$_List_iterator@V?$_List_val@U?$_List_simple_types@U?$pair@QEAU_typeobject@@V?$vector@PEAUtype_info@detail@pybind11@@V?$allocator@PEAUtype_info@detail@pybind11@@@std@@@std@@@std@@@std@@@std@@@1@AEBQEAU_typeobject@@@Z
    ??$find@X@?$_Hash@V?$_Umap_traits@PEAU_typeobject@@V?$vector@PEAUtype_info@detail@pybind11@@V?$allocator@PEAUtype_info@detail@pybind11@@@std@@@std@@V?$_Uhash_compare@PEAU_typeobject@@U?$hash@PEAU_typeobject@@@std@@U?$equal_to@PEAU_typeobject@@@3@@3@V?$allocator@U?$pair@QEAU_typeobject@@V?$vector@PEAUtype_info@detail@pybind11@@V?$allocator@PEAUtype_info@detail@pybind11@@@std@@@std@@@std@@@3@$0A@@std@@@std@@QEBA?AV?$_List_const_iterator@V?$_List_val@U?$_List_simple_types@U?$pair@QEAU_typeobject@@V?$vector@PEAUtype_info@detail@pybind11@@V?$allocator@PEAUtype_info@detail@pybind11@@@std@@@std@@@std@@@std@@@std@@@1@AEBQEAU_typeobject@@@Z
    ??$find@X@?$_Hash@V?$_Umap_traits@PEBU_object@@V?$vector@PEAU_object@@V?$allocator@PEAU_object@@@std@@@std@@V?$_Uhash_compare@PEBU_object@@U?$hash@PEBU_object@@@std@@U?$equal_to@PEBU_object@@@3@@3@V?$allocator@U?$pair@QEBU_object@@V?$vector@PEAU_object@@V?$allocator@PEAU_object@@@std@@@std@@@std@@@3@$0A@@std@@@std@@QEAA?AV?$_List_iterator@V?$_List_val@U?$_List_simple_types@U?$pair@QEBU_object@@V?$vector@PEAU_object@@V?$allocator@PEAU_object@@@std@@@std@@@std@@@std@@@std@@@1@AEBQEBU_object@@@Z
    ??$find@X@?$_Hash@V?$_Umap_traits@Vtype_index@std@@PEAUtype_info@detail@pybind11@@V?$_Uhash_compare@Vtype_index@std@@U?$hash@Vtype_index@std@@@2@U?$equal_to@Vtype_index@std@@@2@@2@V?$allocator@U?$pair@$$CBVtype_index@std@@PEAUtype_info@detail@pybind11@@@std@@@2@$0A@@std@@@std@@QEAA?AV?$_List_iterator@V?$_List_val@U?$_List_simple_types@U?$pair@$$CBVtype_index@std@@PEAUtype_info@detail@pybind11@@@std@@@std@@@std@@@1@AEBVtype_index@1@@Z
    ??$format@AEBVhandle@pybind11@@@str@pybind11@@QEBA?AV01@AEBVhandle@1@@Z
    ??$forward_as_tuple@$$V@std@@YA?AV?$tuple@$$V@0@XZ
    ??$forward_as_tuple@AEBQEAU_typeobject@@@std@@YA?AV?$tuple@AEBQEAU_typeobject@@@0@AEBQEAU_typeobject@@@Z
    ??$forward_like@$$CBV?$vector@NV?$allocator@N@std@@@std@@AEBN@detail@pybind11@@YA$$QEBNAEBN@Z
    ??$get@$00U?$type_caster@JX@detail@pybind11@@U?$type_caster@NX@23@U423@U423@U423@U423@U423@U423@U423@U423@U123@U423@U123@U123@U423@U423@@std@@YAAEAU?$type_caster@NX@detail@pybind11@@AEAV?$tuple@U?$type_caster@JX@detail@pybind11@@U?$type_caster@NX@23@U423@U423@U423@U423@U423@U423@U423@U423@U123@U423@U123@U123@U423@U423@@0@@Z
    ??$get@$00U?$type_caster@NX@detail@pybind11@@U123@U123@U123@U123@U123@U123@U123@U?$type_caster@JX@23@U123@U123@@std@@YAAEAU?$type_caster@NX@detail@pybind11@@AEAV?$tuple@U?$type_caster@NX@detail@pybind11@@U123@U123@U123@U123@U123@U123@U123@U?$type_caster@JX@23@U123@U123@@0@@Z
    ??$get@$00V?$vector@NV?$allocator@N@std@@@std@@V12@@std@@YA$$QEBV?$vector@NV?$allocator@N@std@@@0@$$QEBV?$tuple@V?$vector@NV?$allocator@N@std@@@std@@V12@@0@@Z
    ??$get@$01U?$type_caster@JX@detail@pybind11@@U?$type_caster@NX@23@U423@U423@U423@U423@U423@U423@U423@U423@U123@U423@U123@U123@U423@U423@@std@@YAAEAU?$type_caster@NX@detail@pybind11@@AEAV?$tuple@U?$type_caster@JX@detail@pybind11@@U?$type_caster@NX@23@U423@U423@U423@U423@U423@U423@U423@U423@U123@U423@U123@U123@U423@U423@@0@@Z
    ??$get@$01U?$type_caster@NX@detail@pybind11@@U123@U123@U123@U123@U123@U123@U123@U?$type_caster@JX@23@U123@U123@@std@@YAAEAU?$type_caster@NX@detail@pybind11@@AEAV?$tuple@U?$type_caster@NX@detail@pybind11@@U123@U123@U123@U123@U123@U123@U123@U?$type_caster@JX@23@U123@U123@@0@@Z
    ??$get@$02U?$type_caster@JX@detail@pybind11@@U?$type_caster@NX@23@U423@U423@U423@U423@U423@U423@U423@U423@U123@U423@U123@U123@U423@U423@@std@@YAAEAU?$type_caster@NX@detail@pybind11@@AEAV?$tuple@U?$type_caster@JX@detail@pybind11@@U?$type_caster@NX@23@U423@U423@U423@U423@U423@U423@U423@U423@U123@U423@U123@U123@U423@U423@@0@@Z
    ??$get@$02U?$type_caster@NX@detail@pybind11@@U123@U123@U123@U123@U123@U123@U123@U?$type_caster@JX@23@U123@U123@@std@@YAAEAU?$type_caster@NX@detail@pybind11@@AEAV?$tuple@U?$type_caster@NX@detail@pybind11@@U123@U123@U123@U123@U123@U123@U123@U?$type_caster@JX@23@U123@U123@@0@@Z
    ??$get@$03U?$type_caster@JX@detail@pybind11@@U?$type_caster@NX@23@U423@U423@U423@U423@U423@U423@U423@U423@U123@U423@U123@U123@U423@U423@@std@@YAAEAU?$type_caster@NX@detail@pybind11@@AEAV?$tuple@U?$type_caster@JX@detail@pybind11@@U?$type_caster@NX@23@U423@U423@U423@U423@U423@U423@U423@U423@U123@U423@U123@U123@U423@U423@@0@@Z
    ??$get@$03U?$type_caster@NX@detail@pybind11@@U123@U123@U123@U123@U123@U123@U123@U?$type_caster@JX@23@U123@U123@@std@@YAAEAU?$type_caster@NX@detail@pybind11@@AEAV?$tuple@U?$type_caster@NX@detail@pybind11@@U123@U123@U123@U123@U123@U123@U123@U?$type_caster@JX@23@U123@U123@@0@@Z
    ??$get@$04U?$type_caster@JX@detail@pybind11@@U?$type_caster@NX@23@U423@U423@U423@U423@U423@U423@U423@U423@U123@U423@U123@U123@U423@U423@@std@@YAAEAU?$type_caster@NX@detail@pybind11@@AEAV?$tuple@U?$type_caster@JX@detail@pybind11@@U?$type_caster@NX@23@U423@U423@U423@U423@U423@U423@U423@U423@U123@U423@U123@U123@U423@U423@@0@@Z
    ??$get@$04U?$type_caster@NX@detail@pybind11@@U123@U123@U123@U123@U123@U123@U123@U?$type_caster@JX@23@U123@U123@@std@@YAAEAU?$type_caster@NX@detail@pybind11@@AEAV?$tuple@U?$type_caster@NX@detail@pybind11@@U123@U123@U123@U123@U123@U123@U123@U?$type_caster@JX@23@U123@U123@@0@@Z
    ??$get@$05U?$type_caster@JX@detail@pybind11@@U?$type_caster@NX@23@U423@U423@U423@U423@U423@U423@U423@U423@U123@U423@U123@U123@U423@U423@@std@@YAAEAU?$type_caster@NX@detail@pybind11@@AEAV?$tuple@U?$type_caster@JX@detail@pybind11@@U?$type_caster@NX@23@U423@U423@U423@U423@U423@U423@U423@U423@U123@U423@U123@U123@U423@U423@@0@@Z
    ??$get@$05U?$type_caster@NX@detail@pybind11@@U123@U123@U123@U123@U123@U123@U123@U?$type_caster@JX@23@U123@U123@@std@@YAAEAU?$type_caster@NX@detail@pybind11@@AEAV?$tuple@U?$type_caster@NX@detail@pybind11@@U123@U123@U123@U123@U123@U123@U123@U?$type_caster@JX@23@U123@U123@@0@@Z
    ??$get@$06U?$type_caster@JX@detail@pybind11@@U?$type_caster@NX@23@U423@U423@U423@U423@U423@U423@U423@U423@U123@U423@U123@U123@U423@U423@@std@@YAAEAU?$type_caster@NX@detail@pybind11@@AEAV?$tuple@U?$type_caster@JX@detail@pybind11@@U?$type_caster@NX@23@U423@U423@U423@U423@U423@U423@U423@U423@U123@U423@U123@U123@U423@U423@@0@@Z
    ??$get@$06U?$type_caster@NX@detail@pybind11@@U123@U123@U123@U123@U123@U123@U123@U?$type_caster@JX@23@U123@U123@@std@@YAAEAU?$type_caster@NX@detail@pybind11@@AEAV?$tuple@U?$type_caster@NX@detail@pybind11@@U123@U123@U123@U123@U123@U123@U123@U?$type_caster@JX@23@U123@U123@@0@@Z
    ??$get@$07U?$type_caster@JX@detail@pybind11@@U?$type_caster@NX@23@U423@U423@U423@U423@U423@U423@U423@U423@U123@U423@U123@U123@U423@U423@@std@@YAAEAU?$type_caster@NX@detail@pybind11@@AEAV?$tuple@U?$type_caster@JX@detail@pybind11@@U?$type_caster@NX@23@U423@U423@U423@U423@U423@U423@U423@U423@U123@U423@U123@U123@U423@U423@@0@@Z
    ??$get@$07U?$type_caster@NX@detail@pybind11@@U123@U123@U123@U123@U123@U123@U123@U?$type_caster@JX@23@U123@U123@@std@@YAAEAU?$type_caster@JX@detail@pybind11@@AEAV?$tuple@U?$type_caster@NX@detail@pybind11@@U123@U123@U123@U123@U123@U123@U123@U?$type_caster@JX@23@U123@U123@@0@@Z
    ??$get@$08U?$type_caster@JX@detail@pybind11@@U?$type_caster@NX@23@U423@U423@U423@U423@U423@U423@U423@U423@U123@U423@U123@U123@U423@U423@@std@@YAAEAU?$type_caster@NX@detail@pybind11@@AEAV?$tuple@U?$type_caster@JX@detail@pybind11@@U?$type_caster@NX@23@U423@U423@U423@U423@U423@U423@U423@U423@U123@U423@U123@U123@U423@U423@@0@@Z
    ??$get@$08U?$type_caster@NX@detail@pybind11@@U123@U123@U123@U123@U123@U123@U123@U?$type_caster@JX@23@U123@U123@@std@@YAAEAU?$type_caster@NX@detail@pybind11@@AEAV?$tuple@U?$type_caster@NX@detail@pybind11@@U123@U123@U123@U123@U123@U123@U123@U?$type_caster@JX@23@U123@U123@@0@@Z
    ??$get@$09U?$type_caster@JX@detail@pybind11@@U?$type_caster@NX@23@U423@U423@U423@U423@U423@U423@U423@U423@U123@U423@U123@U123@U423@U423@@std@@YAAEAU?$type_caster@JX@detail@pybind11@@AEAV?$tuple@U?$type_caster@JX@detail@pybind11@@U?$type_caster@NX@23@U423@U423@U423@U423@U423@U423@U423@U423@U123@U423@U123@U123@U423@U423@@0@@Z
    ??$get@$09U?$type_caster@NX@detail@pybind11@@U123@U123@U123@U123@U123@U123@U123@U?$type_caster@JX@23@U123@U123@@std@@YAAEAU?$type_caster@NX@detail@pybind11@@AEAV?$tuple@U?$type_caster@NX@detail@pybind11@@U123@U123@U123@U123@U123@U123@U123@U?$type_caster@JX@23@U123@U123@@0@@Z
    ??$get@$0A@U?$type_caster@JX@detail@pybind11@@U?$type_caster@NX@23@U423@U423@U423@U423@U423@U423@U423@U423@U123@U423@U123@U123@U423@U423@@std@@YAAEAU?$type_caster@JX@detail@pybind11@@AEAV?$tuple@U?$type_caster@JX@detail@pybind11@@U?$type_caster@NX@23@U423@U423@U423@U423@U423@U423@U423@U423@U123@U423@U123@U123@U423@U423@@0@@Z
    ??$get@$0A@U?$type_caster@NX@detail@pybind11@@U123@U123@U123@U123@U123@U123@U123@U?$type_caster@JX@23@U123@U123@@std@@YAAEAU?$type_caster@NX@detail@pybind11@@AEAV?$tuple@U?$type_caster@NX@detail@pybind11@@U123@U123@U123@U123@U123@U123@U123@U?$type_caster@JX@23@U123@U123@@0@@Z
    ??$get@$0A@V?$type_caster@Vhandle@pybind11@@X@detail@pybind11@@@std@@YAAEAV?$type_caster@Vhandle@pybind11@@X@detail@pybind11@@AEAV?$tuple@V?$type_caster@Vhandle@pybind11@@X@detail@pybind11@@@0@@Z
    ??$get@$0A@V?$vector@NV?$allocator@N@std@@@std@@V12@@std@@YA$$QEBV?$vector@NV?$allocator@N@std@@@0@$$QEBV?$tuple@V?$vector@NV?$allocator@N@std@@@std@@V12@@0@@Z
    ??$get@$0L@U?$type_caster@JX@detail@pybind11@@U?$type_caster@NX@23@U423@U423@U423@U423@U423@U423@U423@U423@U123@U423@U123@U123@U423@U423@@std@@YAAEAU?$type_caster@NX@detail@pybind11@@AEAV?$tuple@U?$type_caster@JX@detail@pybind11@@U?$type_caster@NX@23@U423@U423@U423@U423@U423@U423@U423@U423@U123@U423@U123@U123@U423@U423@@0@@Z
    ??$get@$0M@U?$type_caster@JX@detail@pybind11@@U?$type_caster@NX@23@U423@U423@U423@U423@U423@U423@U423@U423@U123@U423@U123@U123@U423@U423@@std@@YAAEAU?$type_caster@JX@detail@pybind11@@AEAV?$tuple@U?$type_caster@JX@detail@pybind11@@U?$type_caster@NX@23@U423@U423@U423@U423@U423@U423@U423@U423@U123@U423@U123@U123@U423@U423@@0@@Z
    ??$get@$0N@U?$type_caster@JX@detail@pybind11@@U?$type_caster@NX@23@U423@U423@U423@U423@U423@U423@U423@U423@U123@U423@U123@U123@U423@U423@@std@@YAAEAU?$type_caster@JX@detail@pybind11@@AEAV?$tuple@U?$type_caster@JX@detail@pybind11@@U?$type_caster@NX@23@U423@U423@U423@U423@U423@U423@U423@U423@U123@U423@U123@U123@U423@U423@@0@@Z
    ??$get@$0O@U?$type_caster@JX@detail@pybind11@@U?$type_caster@NX@23@U423@U423@U423@U423@U423@U423@U423@U423@U123@U423@U123@U123@U423@U423@@std@@YAAEAU?$type_caster@NX@detail@pybind11@@AEAV?$tuple@U?$type_caster@JX@detail@pybind11@@U?$type_caster@NX@23@U423@U423@U423@U423@U423@U423@U423@U423@U123@U423@U123@U123@U423@U423@@0@@Z
    ??$get@$0P@U?$type_caster@JX@detail@pybind11@@U?$type_caster@NX@23@U423@U423@U423@U423@U423@U423@U423@U423@U123@U423@U123@U123@U423@U423@@std@@YAAEAU?$type_caster@NX@detail@pybind11@@AEAV?$tuple@U?$type_caster@JX@detail@pybind11@@U?$type_caster@NX@23@U423@U423@U423@U423@U423@U423@U423@U423@U123@U423@U123@U123@U423@U423@@0@@Z
    ??$get@_K$0A@@tuple_item@accessor_policies@detail@pybind11@@SA?AVobject@3@Vhandle@3@AEB_K@Z
    ??$get_pointer@Ufunction_record@detail@pybind11@@@capsule@pybind11@@QEBAPEAUfunction_record@detail@1@XZ
    ??$handle_nested_exception@Vbad_alloc@std@@$0A@@detail@pybind11@@YA_NAEBVbad_alloc@std@@AEBVexception_ptr@3@@Z
    ??$handle_nested_exception@Vdomain_error@std@@$0A@@detail@pybind11@@YA_NAEBVdomain_error@std@@AEBVexception_ptr@3@@Z
    ??$handle_nested_exception@Verror_already_set@pybind11@@$0A@@detail@pybind11@@YA_NAEBVerror_already_set@1@AEBVexception_ptr@std@@@Z
    ??$handle_nested_exception@Vexception@std@@$0A@@detail@pybind11@@YA_NAEBVexception@std@@AEBVexception_ptr@3@@Z
    ??$handle_nested_exception@Vinvalid_argument@std@@$0A@@detail@pybind11@@YA_NAEBVinvalid_argument@std@@AEBVexception_ptr@3@@Z
    ??$handle_nested_exception@Vlength_error@std@@$0A@@detail@pybind11@@YA_NAEBVlength_error@std@@AEBVexception_ptr@3@@Z
    ??$handle_nested_exception@Vnested_exception@std@@$0A@@detail@pybind11@@YA_NAEBVnested_exception@std@@AEBVexception_ptr@3@@Z
    ??$handle_nested_exception@Vout_of_range@std@@$0A@@detail@pybind11@@YA_NAEBVout_of_range@std@@AEBVexception_ptr@3@@Z
    ??$handle_nested_exception@Voverflow_error@std@@$0A@@detail@pybind11@@YA_NAEBVoverflow_error@std@@AEBVexception_ptr@3@@Z
    ??$handle_nested_exception@Vrange_error@std@@$0A@@detail@pybind11@@YA_NAEBVrange_error@std@@AEBVexception_ptr@3@@Z
    ??$initialize@AEAP6A?BV?$tuple@V?$vector@NV?$allocator@N@std@@@std@@V12@@std@@JNNNNNNNNNJNJJNN@Z$$CBV12@JNNNNNNNNNJNJJNN$$ZUname@pybind11@@Uscope@4@Usibling@4@$$BY0GBH@DUarg@4@U74@U74@U74@U74@U74@U74@U74@U74@U74@U74@U74@U74@U74@U74@U74@@cpp_function@pybind11@@IEAAXAEAP6A?BV?$tuple@V?$vector@NV?$allocator@N@std@@@std@@V12@@std@@JNNNNNNNNNJNJJNN@ZP6A?BV23@JNNNNNNNNNJNJJNN@ZAEBUname@1@AEBUscope@1@AEBUsibling@1@AEAY0GBH@$$CBDAEBUarg@1@666666666666666@Z
    ??$initialize@AEAP6A?BV?$tuple@V?$vector@NV?$allocator@N@std@@@std@@V12@@std@@NNNNNNNNJNN@Z$$CBV12@NNNNNNNNJNN$$ZUname@pybind11@@Uscope@4@Usibling@4@$$BY0DKL@DUarg@4@U74@U74@U74@U74@U74@U74@U74@U74@U74@U74@@cpp_function@pybind11@@IEAAXAEAP6A?BV?$tuple@V?$vector@NV?$allocator@N@std@@@std@@V12@@std@@NNNNNNNNJNN@ZP6A?BV23@NNNNNNNNJNN@ZAEBUname@1@AEBUscope@1@AEBUsibling@1@AEAY0DKL@$$CBDAEBUarg@1@6666666666@Z
    ??$initialize@V<lambda_2>@?0??all_type_info_get_cache@detail@pybind11@@YA?AU?$pair@V?$_List_iterator@V?$_List_val@U?$_List_simple_types@U?$pair@QEAU_typeobject@@V?$vector@PEAUtype_info@detail@pybind11@@V?$allocator@PEAUtype_info@detail@pybind11@@@std@@@std@@@std@@@std@@@std@@@std@@_N@std@@PEAU_typeobject@@@Z@XVhandle@4@$$Z$$V@cpp_function@pybind11@@IEAAX$$QEAV<lambda_2>@?0??all_type_info_get_cache@detail@1@YA?AU?$pair@V?$_List_iterator@V?$_List_val@U?$_List_simple_types@U?$pair@QEAU_typeobject@@V?$vector@PEAUtype_info@detail@pybind11@@V?$allocator@PEAUtype_info@detail@pybind11@@@std@@@std@@@std@@@std@@@std@@@std@@_N@std@@PEAU_typeobject@@@Z@P6AXVhandle@1@@Z@Z
    ??$isinstance@Vcapsule@pybind11@@$0A@@pybind11@@YA_NVhandle@0@@Z
    ??$load@Vhandle@pybind11@@$0A@@?$pyobject_caster@Vhandle@pybind11@@@detail@pybind11@@QEAA_NVhandle@2@_N@Z
    ??$load_impl_sequence@$0A@$00$01$02$03$04$05$06$07$08$09$0L@$0M@$0N@$0O@$0P@@?$argument_loader@JNNNNNNNNNJNJJNN@detail@pybind11@@AEAA_NAEAUfunction_call@12@U?$integer_sequence@_K$0A@$00$01$02$03$04$05$06$07$08$09$0L@$0M@$0N@$0O@$0P@@std@@@Z
    ??$load_impl_sequence@$0A@$00$01$02$03$04$05$06$07$08$09@?$argument_loader@NNNNNNNNJNN@detail@pybind11@@AEAA_NAEAUfunction_call@12@U?$integer_sequence@_K$0A@$00$01$02$03$04$05$06$07$08$09@std@@@Z
    ??$load_impl_sequence@$0A@@?$argument_loader@Vhandle@pybind11@@@detail@pybind11@@AEAA_NAEAUfunction_call@12@U?$integer_sequence@_K$0A@@std@@@Z
    ??$load_raw@D@?$string_caster@V?$basic_string@DU?$char_traits@D@std@@V?$allocator@D@2@@std@@$0A@@detail@pybind11@@AEAA_NVhandle@2@@Z
    ??$load_type@V?$basic_string@DU?$char_traits@D@std@@V?$allocator@D@2@@std@@@detail@pybind11@@YA?AU?$type_caster@V?$basic_string@DU?$char_traits@D@std@@V?$allocator@D@2@@std@@X@01@AEBVhandle@1@@Z
    ??$load_type@V?$basic_string@DU?$char_traits@D@std@@V?$allocator@D@2@@std@@X@detail@pybind11@@YAAEAU?$type_caster@V?$basic_string@DU?$char_traits@D@std@@V?$allocator@D@2@@std@@X@01@AEAU201@AEBVhandle@1@@Z
    ??$make_tuple@$00AEBVhandle@pybind11@@@pybind11@@YA?AVtuple@0@AEBVhandle@0@@Z
    ??$make_tuple@AEAV?$vector@NV?$allocator@N@std@@@std@@AEAV12@@std@@YA?AV?$tuple@V?$vector@NV?$allocator@N@std@@@std@@V12@@0@AEAV?$vector@NV?$allocator@N@std@@@0@0@Z
    ??$max@_K@std@@YAAEB_KAEB_K0@Z
    ??$min@_K@std@@YAAEB_KAEB_K0@Z
    ??$move@V?$basic_string@DU?$char_traits@D@std@@V?$allocator@D@2@@std@@@pybind11@@YA?AV?$basic_string@DU?$char_traits@D@std@@V?$allocator@D@2@@std@@$$QEAVobject@0@@Z
    ??$object_or_cast@AEAY0EH@$$CBD$0A@@detail@pybind11@@YA?AVobject@1@AEAY0EH@$$CBD@Z
    ??$object_or_cast@Vcapsule@pybind11@@$0A@@detail@pybind11@@YA$$QEAVcapsule@1@$$QEAV21@@Z
    ??$reinterpret_borrow@Vcapsule@pybind11@@@pybind11@@YA?AVcapsule@0@Vhandle@0@@Z
    ??$reinterpret_borrow@Vdict@pybind11@@@pybind11@@YA?AVdict@0@Vhandle@0@@Z
    ??$reinterpret_borrow@Vmodule_@pybind11@@@pybind11@@YA?AVmodule_@0@Vhandle@0@@Z
    ??$reinterpret_borrow@Vobject@pybind11@@@pybind11@@YA?AVobject@0@Vhandle@0@@Z
    ??$reinterpret_borrow@Vtuple@pybind11@@@pybind11@@YA?AVtuple@0@Vhandle@0@@Z
    ??$reinterpret_steal@Vdict@pybind11@@@pybind11@@YA?AVdict@0@Vhandle@0@@Z
    ??$reinterpret_steal@Vobject@pybind11@@@pybind11@@YA?AVobject@0@Vhandle@0@@Z
    ??$reinterpret_steal@Vstr@pybind11@@@pybind11@@YA?AVstr@0@Vhandle@0@@Z
    ??$set@_K$0A@@tuple_item@accessor_policies@detail@pybind11@@SAXVhandle@3@AEB_K0@Z
    ??$ssize_t_cast@H@pybind11@@YA_JAEBH@Z
    ??$ssize_t_cast@_J@pybind11@@YA_JAEB_J@Z
    ??$ssize_t_cast@_K@pybind11@@YA_JAEB_K@Z
    ??$swap@PEAI$0A@@std@@YAXAEAPEAI0@Z
    ??$swap@_K$0A@@std@@YAXAEA_K0@Z
    ??$try_emplace@$$V@?$unordered_map@PEAU_typeobject@@V?$vector@PEAUtype_info@detail@pybind11@@V?$allocator@PEAUtype_info@detail@pybind11@@@std@@@std@@U?$hash@PEAU_typeobject@@@3@U?$equal_to@PEAU_typeobject@@@3@V?$allocator@U?$pair@QEAU_typeobject@@V?$vector@PEAUtype_info@detail@pybind11@@V?$allocator@PEAUtype_info@detail@pybind11@@@std@@@std@@@std@@@3@@std@@QEAA?AU?$pair@V?$_List_iterator@V?$_List_val@U?$_List_simple_types@U?$pair@QEAU_typeobject@@V?$vector@PEAUtype_info@detail@pybind11@@V?$allocator@PEAUtype_info@detail@pybind11@@@std@@@std@@@std@@@std@@@std@@@std@@_N@1@AEBQEAU_typeobject@@@Z
    ??$uninitialized_fill@PEAV?$_List_unchecked_const_iterator@V?$_List_val@U?$_List_simple_types@PEAU_object@@@std@@@std@@U_Iterator_base0@2@@std@@V12@@std@@YAXQEAV?$_List_unchecked_const_iterator@V?$_List_val@U?$_List_simple_types@PEAU_object@@@std@@@std@@U_Iterator_base0@2@@0@0AEBV10@@Z
    ??$uninitialized_fill@PEAV?$_List_unchecked_const_iterator@V?$_List_val@U?$_List_simple_types@U?$pair@PEBU_object@@PEBD@std@@@std@@@std@@U_Iterator_base0@2@@std@@V12@@std@@YAXQEAV?$_List_unchecked_const_iterator@V?$_List_val@U?$_List_simple_types@U?$pair@PEBU_object@@PEBD@std@@@std@@@std@@U_Iterator_base0@2@@0@0AEBV10@@Z
    ??$uninitialized_fill@PEAV?$_List_unchecked_iterator@V?$_List_val@U?$_List_simple_types@U?$pair@$$CBV?$basic_string@DU?$char_traits@D@std@@V?$allocator@D@2@@std@@PEAX@std@@@std@@@std@@@std@@V12@@std@@YAXQEAV?$_List_unchecked_iterator@V?$_List_val@U?$_List_simple_types@U?$pair@$$CBV?$basic_string@DU?$char_traits@D@std@@V?$allocator@D@2@@std@@PEAX@std@@@std@@@std@@@0@0AEBV10@@Z
    ??$uninitialized_fill@PEAV?$_List_unchecked_iterator@V?$_List_val@U?$_List_simple_types@U?$pair@$$CBVtype_index@std@@PEAUtype_info@detail@pybind11@@@std@@@std@@@std@@@std@@V12@@std@@YAXQEAV?$_List_unchecked_iterator@V?$_List_val@U?$_List_simple_types@U?$pair@$$CBVtype_index@std@@PEAUtype_info@detail@pybind11@@@std@@@std@@@std@@@0@0AEBV10@@Z
    ??$uninitialized_fill@PEAV?$_List_unchecked_iterator@V?$_List_val@U?$_List_simple_types@U?$pair@$$CBVtype_index@std@@V?$vector@P6A_NPEAU_object@@AEAPEAX@ZV?$allocator@P6A_NPEAU_object@@AEAPEAX@Z@std@@@2@@std@@@std@@@std@@@std@@V12@@std@@YAXQEAV?$_List_unchecked_iterator@V?$_List_val@U?$_List_simple_types@U?$pair@$$CBVtype_index@std@@V?$vector@P6A_NPEAU_object@@AEAPEAX@ZV?$allocator@P6A_NPEAU_object@@AEAPEAX@Z@std@@@2@@std@@@std@@@std@@@0@0AEBV10@@Z
    ??$uninitialized_fill@PEAV?$_List_unchecked_iterator@V?$_List_val@U?$_List_simple_types@U?$pair@QEAU_typeobject@@V?$vector@PEAUtype_info@detail@pybind11@@V?$allocator@PEAUtype_info@detail@pybind11@@@std@@@std@@@std@@@std@@@std@@@std@@V12@@std@@YAXQEAV?$_List_unchecked_iterator@V?$_List_val@U?$_List_simple_types@U?$pair@QEAU_typeobject@@V?$vector@PEAUtype_info@detail@pybind11@@V?$allocator@PEAUtype_info@detail@pybind11@@@std@@@std@@@std@@@std@@@std@@@0@0AEBV10@@Z
    ??$uninitialized_fill@PEAV?$_List_unchecked_iterator@V?$_List_val@U?$_List_simple_types@U?$pair@QEBU_object@@V?$vector@PEAU_object@@V?$allocator@PEAU_object@@@std@@@std@@@std@@@std@@@std@@@std@@V12@@std@@YAXQEAV?$_List_unchecked_iterator@V?$_List_val@U?$_List_simple_types@U?$pair@QEBU_object@@V?$vector@PEAU_object@@V?$allocator@PEAU_object@@@std@@@std@@@std@@@std@@@std@@@0@0AEBV10@@Z
    ??$uninitialized_fill@PEAV?$_List_unchecked_iterator@V?$_List_val@U?$_List_simple_types@U?$pair@QEBXPEAUinstance@detail@pybind11@@@std@@@std@@@std@@@std@@V12@@std@@YAXQEAV?$_List_unchecked_iterator@V?$_List_val@U?$_List_simple_types@U?$pair@QEBXPEAUinstance@detail@pybind11@@@std@@@std@@@std@@@0@0AEBV10@@Z
    ??$value_ptr@X@value_and_holder@detail@pybind11@@QEBAAEAPEAXXZ
    ??$with_instance_map@V<lambda_1>@?0??deregister_instance_impl@detail@pybind11@@YA_NPEAXPEAUinstance@34@@Z@@detail@pybind11@@YA_NPEBXAEBV<lambda_1>@?0??deregister_instance_impl@01@YA_NPEAXPEAUinstance@01@@Z@@Z
    ??$with_internals@V<lambda_1>@?0???R<lambda_2>@?0??all_type_info_get_cache@detail@pybind11@@YA?AU?$pair@V?$_List_iterator@V?$_List_val@U?$_List_simple_types@U?$pair@QEAU_typeobject@@V?$vector@PEAUtype_info@detail@pybind11@@V?$allocator@PEAUtype_info@detail@pybind11@@@std@@@std@@@std@@@std@@@std@@@std@@_N@std@@PEAU_typeobject@@@Z@QEBA?A?<auto>@@Vhandle@5@@Z@@detail@pybind11@@YAXAEBV<lambda_1>@?0???R<lambda_2>@?0??all_type_info_get_cache@01@YA?AU?$pair@V?$_List_iterator@V?$_List_val@U?$_List_simple_types@U?$pair@QEAU_typeobject@@V?$vector@PEAUtype_info@detail@pybind11@@V?$allocator@PEAUtype_info@detail@pybind11@@@std@@@std@@@std@@@std@@@std@@@std@@_N@std@@PEAU_typeobject@@@Z@QEBA?A?<auto>@@Vhandle@1@@Z@@Z
    ??$with_internals@V<lambda_1>@?0??all_type_info_get_cache@detail@pybind11@@YA?AU?$pair@V?$_List_iterator@V?$_List_val@U?$_List_simple_types@U?$pair@QEAU_typeobject@@V?$vector@PEAUtype_info@detail@pybind11@@V?$allocator@PEAUtype_info@detail@pybind11@@@std@@@std@@@std@@@std@@@std@@@std@@_N@std@@PEAU_typeobject@@@Z@@detail@pybind11@@YA?AU?$pair@V?$_List_iterator@V?$_List_val@U?$_List_simple_types@U?$pair@QEAU_typeobject@@V?$vector@PEAUtype_info@detail@pybind11@@V?$allocator@PEAUtype_info@detail@pybind11@@@std@@@std@@@std@@@std@@@std@@@std@@_N@std@@AEBV<lambda_1>@?0??all_type_info_get_cache@01@YA?AU23@PEAU_typeobject@@@Z@@Z
    ??$with_internals@V<lambda_1>@?0??clear_patients@detail@pybind11@@YAXPEAU_object@@@Z@@detail@pybind11@@YAXAEBV<lambda_1>@?0??clear_patients@01@YAXPEAU_object@@@Z@@Z
    ??$with_internals@V<lambda_1>@?0??dispatcher@cpp_function@pybind11@@KAPEAU_object@@PEAU5@00@Z@@detail@pybind11@@YA_NAEBV<lambda_1>@?0??dispatcher@cpp_function@1@KAPEAU_object@@PEAU5@00@Z@@Z
    ??$with_internals@V<lambda_1>@?0??get_global_type_info@detail@pybind11@@YAPEAUtype_info@34@AEBVtype_index@std@@@Z@@detail@pybind11@@YAPEAUtype_info@01@AEBV<lambda_1>@?0??get_global_type_info@01@YAPEAU201@AEBVtype_index@std@@@Z@@Z
    ??$with_internals@V<lambda_1>@?0??pybind11_meta_dealloc@detail@pybind11@@9@@detail@pybind11@@YAXAEBV<lambda_1>@?0??pybind11_meta_dealloc@01@9@@Z
    ??0?$_Alloc_construct_ptr@V?$allocator@U?$_Flist_node@P6AXVexception_ptr@std@@@ZPEAX@std@@@std@@@std@@QEAA@AEAV?$allocator@U?$_Flist_node@P6AXVexception_ptr@std@@@ZPEAX@std@@@1@@Z
    ??0?$_Alloc_construct_ptr@V?$allocator@U?$_List_node@U?$pair@QEAU_typeobject@@V?$vector@PEAUtype_info@detail@pybind11@@V?$allocator@PEAUtype_info@detail@pybind11@@@std@@@std@@@std@@PEAX@std@@@std@@@std@@QEAA@AEAV?$allocator@U?$_List_node@U?$pair@QEAU_typeobject@@V?$vector@PEAUtype_info@detail@pybind11@@V?$allocator@PEAUtype_info@detail@pybind11@@@std@@@std@@@std@@PEAX@std@@@1@@Z
    ??0?$_Array_const_iterator@Vobject@pybind11@@$00@std@@QEAA@PEBVobject@pybind11@@_K@Z
    ??0?$_Array_const_iterator@Vobject@pybind11@@$01@std@@QEAA@PEBVobject@pybind11@@_K@Z
    ??0?$_Array_iterator@Vobject@pybind11@@$00@std@@QEAA@PEAVobject@pybind11@@_K@Z
    ??0?$_Array_iterator@Vobject@pybind11@@$01@std@@QEAA@PEAVobject@pybind11@@_K@Z
    ??0?$_Flist_unchecked_const_iterator@V?$_Flist_val@U?$_Flist_simple_types@P6AXVexception_ptr@std@@@Z@std@@@std@@U_Iterator_base0@2@@std@@QEAA@PEAU?$_Flist_node@P6AXVexception_ptr@std@@@ZPEAX@1@PEBV?$_Flist_val@U?$_Flist_simple_types@P6AXVexception_ptr@std@@@Z@std@@@1@@Z
    ??0?$_Flist_val@U?$_Flist_simple_types@P6AXVexception_ptr@std@@@Z@std@@@std@@QEAA@XZ
    ??0?$_Flist_val@U?$_Flist_simple_types@V?$basic_string@DU?$char_traits@D@std@@V?$allocator@D@2@@std@@@std@@@std@@QEAA@XZ
    ??0?$_Hash@V?$_Umap_traits@PEAU_typeobject@@V?$vector@PEAUtype_info@detail@pybind11@@V?$allocator@PEAUtype_info@detail@pybind11@@@std@@@std@@V?$_Uhash_compare@PEAU_typeobject@@U?$hash@PEAU_typeobject@@@std@@U?$equal_to@PEAU_typeobject@@@3@@3@V?$allocator@U?$pair@QEAU_typeobject@@V?$vector@PEAUtype_info@detail@pybind11@@V?$allocator@PEAUtype_info@detail@pybind11@@@std@@@std@@@std@@@3@$0A@@std@@@std@@IEAA@AEBV?$_Uhash_compare@PEAU_typeobject@@U?$hash@PEAU_typeobject@@@std@@U?$equal_to@PEAU_typeobject@@@3@@1@AEBV?$allocator@U?$pair@QEAU_typeobject@@V?$vector@PEAUtype_info@detail@pybind11@@V?$allocator@PEAUtype_info@detail@pybind11@@@std@@@std@@@std@@@1@@Z
    ??0?$_Hash@V?$_Umap_traits@PEBU_object@@V?$vector@PEAU_object@@V?$allocator@PEAU_object@@@std@@@std@@V?$_Uhash_compare@PEBU_object@@U?$hash@PEBU_object@@@std@@U?$equal_to@PEBU_object@@@3@@3@V?$allocator@U?$pair@QEBU_object@@V?$vector@PEAU_object@@V?$allocator@PEAU_object@@@std@@@std@@@std@@@3@$0A@@std@@@std@@IEAA@AEBV?$_Uhash_compare@PEBU_object@@U?$hash@PEBU_object@@@std@@U?$equal_to@PEBU_object@@@3@@1@AEBV?$allocator@U?$pair@QEBU_object@@V?$vector@PEAU_object@@V?$allocator@PEAU_object@@@std@@@std@@@std@@@1@@Z
    ??0?$_Hash@V?$_Umap_traits@PEBXPEAUinstance@detail@pybind11@@V?$_Uhash_compare@PEBXU?$hash@PEBX@std@@U?$equal_to@PEBX@2@@std@@V?$allocator@U?$pair@QEBXPEAUinstance@detail@pybind11@@@std@@@5@$00@std@@@std@@IEAA@AEBV?$_Uhash_compare@PEBXU?$hash@PEBX@std@@U?$equal_to@PEBX@2@@1@AEBV?$allocator@U?$pair@QEBXPEAUinstance@detail@pybind11@@@std@@@1@@Z
    ??0?$_Hash@V?$_Umap_traits@V?$basic_string@DU?$char_traits@D@std@@V?$allocator@D@2@@std@@PEAXV?$_Uhash_compare@V?$basic_string@DU?$char_traits@D@std@@V?$allocator@D@2@@std@@U?$hash@V?$basic_string@DU?$char_traits@D@std@@V?$allocator@D@2@@std@@@2@U?$equal_to@V?$basic_string@DU?$char_traits@D@std@@V?$allocator@D@2@@std@@@2@@2@V?$allocator@U?$pair@$$CBV?$basic_string@DU?$char_traits@D@std@@V?$allocator@D@2@@std@@PEAX@std@@@2@$0A@@std@@@std@@IEAA@AEBV?$_Uhash_compare@V?$basic_string@DU?$char_traits@D@std@@V?$allocator@D@2@@std@@U?$hash@V?$basic_string@DU?$char_traits@D@std@@V?$allocator@D@2@@std@@@2@U?$equal_to@V?$basic_string@DU?$char_traits@D@std@@V?$allocator@D@2@@std@@@2@@1@AEBV?$allocator@U?$pair@$$CBV?$basic_string@DU?$char_traits@D@std@@V?$allocator@D@2@@std@@PEAX@std@@@1@@Z
    ??0?$_Hash@V?$_Umap_traits@Vtype_index@std@@PEAUtype_info@detail@pybind11@@V?$_Uhash_compare@Vtype_index@std@@U?$hash@Vtype_index@std@@@2@U?$equal_to@Vtype_index@std@@@2@@2@V?$allocator@U?$pair@$$CBVtype_index@std@@PEAUtype_info@detail@pybind11@@@std@@@2@$0A@@std@@@std@@IEAA@AEBV?$_Uhash_compare@Vtype_index@std@@U?$hash@Vtype_index@std@@@2@U?$equal_to@Vtype_index@std@@@2@@1@AEBV?$allocator@U?$pair@$$CBVtype_index@std@@PEAUtype_info@detail@pybind11@@@std@@@1@@Z
    ??0?$_Hash@V?$_Umap_traits@Vtype_index@std@@V?$vector@P6A_NPEAU_object@@AEAPEAX@ZV?$allocator@P6A_NPEAU_object@@AEAPEAX@Z@std@@@2@V?$_Uhash_compare@Vtype_index@std@@U?$hash@Vtype_index@std@@@2@U?$equal_to@Vtype_index@std@@@2@@2@V?$allocator@U?$pair@$$CBVtype_index@std@@V?$vector@P6A_NPEAU_object@@AEAPEAX@ZV?$allocator@P6A_NPEAU_object@@AEAPEAX@Z@std@@@2@@std@@@2@$0A@@std@@@std@@IEAA@AEBV?$_Uhash_compare@Vtype_index@std@@U?$hash@Vtype_index@std@@@2@U?$equal_to@Vtype_index@std@@@2@@1@AEBV?$allocator@U?$pair@$$CBVtype_index@std@@V?$vector@P6A_NPEAU_object@@AEAPEAX@ZV?$allocator@P6A_NPEAU_object@@AEAPEAX@Z@std@@@2@@std@@@1@@Z
    ??0?$_Hash@V?$_Uset_traits@PEAU_object@@V?$_Uhash_compare@PEAU_object@@U?$hash@PEAU_object@@@std@@U?$equal_to@PEAU_object@@@3@@std@@V?$allocator@PEAU_object@@@3@$0A@@std@@@std@@IEAA@AEBV?$_Uhash_compare@PEAU_object@@U?$hash@PEAU_object@@@std@@U?$equal_to@PEAU_object@@@3@@1@AEBV?$allocator@PEAU_object@@@1@@Z
    ??0?$_Hash@V?$_Uset_traits@U?$pair@PEBU_object@@PEBD@std@@V?$_Uhash_compare@U?$pair@PEBU_object@@PEBD@std@@Uoverride_hash@detail@pybind11@@U?$equal_to@U?$pair@PEBU_object@@PEBD@std@@@2@@2@V?$allocator@U?$pair@PEBU_object@@PEBD@std@@@2@$0A@@std@@@std@@IEAA@AEBV?$_Uhash_compare@U?$pair@PEBU_object@@PEBD@std@@Uoverride_hash@detail@pybind11@@U?$equal_to@U?$pair@PEBU_object@@PEBD@std@@@2@@1@AEBV?$allocator@U?$pair@PEBU_object@@PEBD@std@@@1@@Z
    ??0?$_List_unchecked_const_iterator@V?$_List_val@U?$_List_simple_types@PEAU_object@@@std@@@std@@U_Iterator_base0@2@@std@@QEAA@PEAU?$_List_node@PEAU_object@@PEAX@1@PEBV?$_List_val@U?$_List_simple_types@PEAU_object@@@std@@@1@@Z
    ??0?$_List_unchecked_const_iterator@V?$_List_val@U?$_List_simple_types@U?$pair@$$CBV?$basic_string@DU?$char_traits@D@std@@V?$allocator@D@2@@std@@PEAX@std@@@std@@@std@@U_Iterator_base0@2@@std@@QEAA@PEAU?$_List_node@U?$pair@$$CBV?$basic_string@DU?$char_traits@D@std@@V?$allocator@D@2@@std@@PEAX@std@@PEAX@1@PEBV?$_List_val@U?$_List_simple_types@U?$pair@$$CBV?$basic_string@DU?$char_traits@D@std@@V?$allocator@D@2@@std@@PEAX@std@@@std@@@1@@Z
    ??0?$_List_unchecked_const_iterator@V?$_List_val@U?$_List_simple_types@U?$pair@$$CBVtype_index@std@@PEAUtype_info@detail@pybind11@@@std@@@std@@@std@@U_Iterator_base0@2@@std@@QEAA@PEAU?$_List_node@U?$pair@$$CBVtype_index@std@@PEAUtype_info@detail@pybind11@@@std@@PEAX@1@PEBV?$_List_val@U?$_List_simple_types@U?$pair@$$CBVtype_index@std@@PEAUtype_info@detail@pybind11@@@std@@@std@@@1@@Z
    ??0?$_List_unchecked_const_iterator@V?$_List_val@U?$_List_simple_types@U?$pair@$$CBVtype_index@std@@V?$vector@P6A_NPEAU_object@@AEAPEAX@ZV?$allocator@P6A_NPEAU_object@@AEAPEAX@Z@std@@@2@@std@@@std@@@std@@U_Iterator_base0@2@@std@@QEAA@PEAU?$_List_node@U?$pair@$$CBVtype_index@std@@V?$vector@P6A_NPEAU_object@@AEAPEAX@ZV?$allocator@P6A_NPEAU_object@@AEAPEAX@Z@std@@@2@@std@@PEAX@1@PEBV?$_List_val@U?$_List_simple_types@U?$pair@$$CBVtype_index@std@@V?$vector@P6A_NPEAU_object@@AEAPEAX@ZV?$allocator@P6A_NPEAU_object@@AEAPEAX@Z@std@@@2@@std@@@std@@@1@@Z
    ??0?$_List_unchecked_const_iterator@V?$_List_val@U?$_List_simple_types@U?$pair@PEBU_object@@PEBD@std@@@std@@@std@@U_Iterator_base0@2@@std@@QEAA@PEAU?$_List_node@U?$pair@PEBU_object@@PEBD@std@@PEAX@1@PEBV?$_List_val@U?$_List_simple_types@U?$pair@PEBU_object@@PEBD@std@@@std@@@1@@Z
    ??0?$_List_unchecked_const_iterator@V?$_List_val@U?$_List_simple_types@U?$pair@QEAU_typeobject@@V?$vector@PEAUtype_info@detail@pybind11@@V?$allocator@PEAUtype_info@detail@pybind11@@@std@@@std@@@std@@@std@@@std@@U_Iterator_base0@2@@std@@QEAA@PEAU?$_List_node@U?$pair@QEAU_typeobject@@V?$vector@PEAUtype_info@detail@pybind11@@V?$allocator@PEAUtype_info@detail@pybind11@@@std@@@std@@@std@@PEAX@1@PEBV?$_List_val@U?$_List_simple_types@U?$pair@QEAU_typeobject@@V?$vector@PEAUtype_info@detail@pybind11@@V?$allocator@PEAUtype_info@detail@pybind11@@@std@@@std@@@std@@@std@@@1@@Z
    ??0?$_List_unchecked_const_iterator@V?$_List_val@U?$_List_simple_types@U?$pair@QEBU_object@@V?$vector@PEAU_object@@V?$allocator@PEAU_object@@@std@@@std@@@std@@@std@@@std@@U_Iterator_base0@2@@std@@QEAA@PEAU?$_List_node@U?$pair@QEBU_object@@V?$vector@PEAU_object@@V?$allocator@PEAU_object@@@std@@@std@@@std@@PEAX@1@PEBV?$_List_val@U?$_List_simple_types@U?$pair@QEBU_object@@V?$vector@PEAU_object@@V?$allocator@PEAU_object@@@std@@@std@@@std@@@std@@@1@@Z
    ??0?$_List_unchecked_const_iterator@V?$_List_val@U?$_List_simple_types@U?$pair@QEBXPEAUinstance@detail@pybind11@@@std@@@std@@@std@@U_Iterator_base0@2@@std@@QEAA@PEAU?$_List_node@U?$pair@QEBXPEAUinstance@detail@pybind11@@@std@@PEAX@1@PEBV?$_List_val@U?$_List_simple_types@U?$pair@QEBXPEAUinstance@detail@pybind11@@@std@@@std@@@1@@Z
    ??0?$_List_val@U?$_List_simple_types@PEAU_object@@@std@@@std@@QEAA@XZ
    ??0?$_List_val@U?$_List_simple_types@U?$pair@$$CBV?$basic_string@DU?$char_traits@D@std@@V?$allocator@D@2@@std@@PEAX@std@@@std@@@std@@QEAA@XZ
    ??0?$_List_val@U?$_List_simple_types@U?$pair@$$CBVtype_index@std@@PEAUtype_info@detail@pybind11@@@std@@@std@@@std@@QEAA@XZ
    ??0?$_List_val@U?$_List_simple_types@U?$pair@$$CBVtype_index@std@@V?$vector@P6A_NPEAU_object@@AEAPEAX@ZV?$allocator@P6A_NPEAU_object@@AEAPEAX@Z@std@@@2@@std@@@std@@@std@@QEAA@XZ
    ??0?$_List_val@U?$_List_simple_types@U?$pair@PEBU_object@@PEBD@std@@@std@@@std@@QEAA@XZ
    ??0?$_List_val@U?$_List_simple_types@U?$pair@QEAU_typeobject@@V?$vector@PEAUtype_info@detail@pybind11@@V?$allocator@PEAUtype_info@detail@pybind11@@@std@@@std@@@std@@@std@@@std@@QEAA@XZ
    ??0?$_List_val@U?$_List_simple_types@U?$pair@QEBU_object@@V?$vector@PEAU_object@@V?$allocator@PEAU_object@@@std@@@std@@@std@@@std@@@std@@QEAA@XZ
    ??0?$_List_val@U?$_List_simple_types@U?$pair@QEBXPEAUinstance@detail@pybind11@@@std@@@std@@@std@@QEAA@XZ
    ??0?$_Ptr_base@Uerror_fetch_and_normalize@detail@pybind11@@@std@@IEAA@XZ
    ??0?$_Ref_count_resource@PEAUerror_fetch_and_normalize@detail@pybind11@@P6AXPEAU123@@Z@std@@QEAA@PEAUerror_fetch_and_normalize@detail@pybind11@@P6AX0@Z@Z
    ??0?$_String_bitmap@D$00@std@@QEAA@XZ
    ??0?$_String_val@U?$_Simple_types@D@std@@@std@@QEAA@XZ
    ??0?$_Temporary_owner_del@PEAUerror_fetch_and_normalize@detail@pybind11@@P6AXPEAU123@@Z@std@@QEAA@QEAUerror_fetch_and_normalize@detail@pybind11@@AEAP6AXPEAU234@@Z@Z
    ??0?$_Tuple_val@U?$type_caster@JX@detail@pybind11@@@std@@QEAA@XZ
    ??0?$_Tuple_val@U?$type_caster@NX@detail@pybind11@@@std@@QEAA@XZ
    ??0?$_Tuple_val@V?$type_caster@Vhandle@pybind11@@X@detail@pybind11@@@std@@QEAA@XZ
    ??0?$_Uhash_compare@PEAU_object@@U?$hash@PEAU_object@@@std@@U?$equal_to@PEAU_object@@@3@@std@@QEAA@XZ
    ??0?$_Uhash_compare@PEAU_typeobject@@U?$hash@PEAU_typeobject@@@std@@U?$equal_to@PEAU_typeobject@@@3@@std@@QEAA@XZ
    ??0?$_Uhash_compare@PEBU_object@@U?$hash@PEBU_object@@@std@@U?$equal_to@PEBU_object@@@3@@std@@QEAA@XZ
    ??0?$_Uhash_compare@PEBXU?$hash@PEBX@std@@U?$equal_to@PEBX@2@@std@@QEAA@XZ
    ??0?$_Uhash_compare@U?$pair@PEBU_object@@PEBD@std@@Uoverride_hash@detail@pybind11@@U?$equal_to@U?$pair@PEBU_object@@PEBD@std@@@2@@std@@QEAA@XZ
    ??0?$_Uhash_compare@V?$basic_string@DU?$char_traits@D@std@@V?$allocator@D@2@@std@@U?$hash@V?$basic_string@DU?$char_traits@D@std@@V?$allocator@D@2@@std@@@2@U?$equal_to@V?$basic_string@DU?$char_traits@D@std@@V?$allocator@D@2@@std@@@2@@std@@QEAA@XZ
    ??0?$_Uhash_compare@Vtype_index@std@@U?$hash@Vtype_index@std@@@2@U?$equal_to@Vtype_index@std@@@2@@std@@QEAA@XZ
    ??0?$_Umap_traits@PEAU_typeobject@@V?$vector@PEAUtype_info@detail@pybind11@@V?$allocator@PEAUtype_info@detail@pybind11@@@std@@@std@@V?$_Uhash_compare@PEAU_typeobject@@U?$hash@PEAU_typeobject@@@std@@U?$equal_to@PEAU_typeobject@@@3@@3@V?$allocator@U?$pair@QEAU_typeobject@@V?$vector@PEAUtype_info@detail@pybind11@@V?$allocator@PEAUtype_info@detail@pybind11@@@std@@@std@@@std@@@3@$0A@@std@@QEAA@AEBV?$_Uhash_compare@PEAU_typeobject@@U?$hash@PEAU_typeobject@@@std@@U?$equal_to@PEAU_typeobject@@@3@@1@@Z
    ??0?$_Umap_traits@PEBU_object@@V?$vector@PEAU_object@@V?$allocator@PEAU_object@@@std@@@std@@V?$_Uhash_compare@PEBU_object@@U?$hash@PEBU_object@@@std@@U?$equal_to@PEBU_object@@@3@@3@V?$allocator@U?$pair@QEBU_object@@V?$vector@PEAU_object@@V?$allocator@PEAU_object@@@std@@@std@@@std@@@3@$0A@@std@@QEAA@AEBV?$_Uhash_compare@PEBU_object@@U?$hash@PEBU_object@@@std@@U?$equal_to@PEBU_object@@@3@@1@@Z
    ??0?$_Umap_traits@PEBXPEAUinstance@detail@pybind11@@V?$_Uhash_compare@PEBXU?$hash@PEBX@std@@U?$equal_to@PEBX@2@@std@@V?$allocator@U?$pair@QEBXPEAUinstance@detail@pybind11@@@std@@@5@$00@std@@QEAA@AEBV?$_Uhash_compare@PEBXU?$hash@PEBX@std@@U?$equal_to@PEBX@2@@1@@Z
    ??0?$_Umap_traits@V?$basic_string@DU?$char_traits@D@std@@V?$allocator@D@2@@std@@PEAXV?$_Uhash_compare@V?$basic_string@DU?$char_traits@D@std@@V?$allocator@D@2@@std@@U?$hash@V?$basic_string@DU?$char_traits@D@std@@V?$allocator@D@2@@std@@@2@U?$equal_to@V?$basic_string@DU?$char_traits@D@std@@V?$allocator@D@2@@std@@@2@@2@V?$allocator@U?$pair@$$CBV?$basic_string@DU?$char_traits@D@std@@V?$allocator@D@2@@std@@PEAX@std@@@2@$0A@@std@@QEAA@AEBV?$_Uhash_compare@V?$basic_string@DU?$char_traits@D@std@@V?$allocator@D@2@@std@@U?$hash@V?$basic_string@DU?$char_traits@D@std@@V?$allocator@D@2@@std@@@2@U?$equal_to@V?$basic_string@DU?$char_traits@D@std@@V?$allocator@D@2@@std@@@2@@1@@Z
    ??0?$_Umap_traits@Vtype_index@std@@PEAUtype_info@detail@pybind11@@V?$_Uhash_compare@Vtype_index@std@@U?$hash@Vtype_index@std@@@2@U?$equal_to@Vtype_index@std@@@2@@2@V?$allocator@U?$pair@$$CBVtype_index@std@@PEAUtype_info@detail@pybind11@@@std@@@2@$0A@@std@@QEAA@AEBV?$_Uhash_compare@Vtype_index@std@@U?$hash@Vtype_index@std@@@2@U?$equal_to@Vtype_index@std@@@2@@1@@Z
    ??0?$_Umap_traits@Vtype_index@std@@V?$vector@P6A_NPEAU_object@@AEAPEAX@ZV?$allocator@P6A_NPEAU_object@@AEAPEAX@Z@std@@@2@V?$_Uhash_compare@Vtype_index@std@@U?$hash@Vtype_index@std@@@2@U?$equal_to@Vtype_index@std@@@2@@2@V?$allocator@U?$pair@$$CBVtype_index@std@@V?$vector@P6A_NPEAU_object@@AEAPEAX@ZV?$allocator@P6A_NPEAU_object@@AEAPEAX@Z@std@@@2@@std@@@2@$0A@@std@@QEAA@AEBV?$_Uhash_compare@Vtype_index@std@@U?$hash@Vtype_index@std@@@2@U?$equal_to@Vtype_index@std@@@2@@1@@Z
    ??0?$_Uninitialized_backout@PEAV?$_List_unchecked_const_iterator@V?$_List_val@U?$_List_simple_types@PEAU_object@@@std@@@std@@U_Iterator_base0@2@@std@@@std@@QEAA@PEAV?$_List_unchecked_const_iterator@V?$_List_val@U?$_List_simple_types@PEAU_object@@@std@@@std@@U_Iterator_base0@2@@1@@Z
    ??0?$_Uninitialized_backout@PEAV?$_List_unchecked_const_iterator@V?$_List_val@U?$_List_simple_types@U?$pair@PEBU_object@@PEBD@std@@@std@@@std@@U_Iterator_base0@2@@std@@@std@@QEAA@PEAV?$_List_unchecked_const_iterator@V?$_List_val@U?$_List_simple_types@U?$pair@PEBU_object@@PEBD@std@@@std@@@std@@U_Iterator_base0@2@@1@@Z
    ??0?$_Uninitialized_backout@PEAV?$_List_unchecked_iterator@V?$_List_val@U?$_List_simple_types@U?$pair@$$CBV?$basic_string@DU?$char_traits@D@std@@V?$allocator@D@2@@std@@PEAX@std@@@std@@@std@@@std@@@std@@QEAA@PEAV?$_List_unchecked_iterator@V?$_List_val@U?$_List_simple_types@U?$pair@$$CBV?$basic_string@DU?$char_traits@D@std@@V?$allocator@D@2@@std@@PEAX@std@@@std@@@std@@@1@@Z
    ??0?$_Uninitialized_backout@PEAV?$_List_unchecked_iterator@V?$_List_val@U?$_List_simple_types@U?$pair@$$CBVtype_index@std@@PEAUtype_info@detail@pybind11@@@std@@@std@@@std@@@std@@@std@@QEAA@PEAV?$_List_unchecked_iterator@V?$_List_val@U?$_List_simple_types@U?$pair@$$CBVtype_index@std@@PEAUtype_info@detail@pybind11@@@std@@@std@@@std@@@1@@Z
    ??0?$_Uninitialized_backout@PEAV?$_List_unchecked_iterator@V?$_List_val@U?$_List_simple_types@U?$pair@$$CBVtype_index@std@@V?$vector@P6A_NPEAU_object@@AEAPEAX@ZV?$allocator@P6A_NPEAU_object@@AEAPEAX@Z@std@@@2@@std@@@std@@@std@@@std@@@std@@QEAA@PEAV?$_List_unchecked_iterator@V?$_List_val@U?$_List_simple_types@U?$pair@$$CBVtype_index@std@@V?$vector@P6A_NPEAU_object@@AEAPEAX@ZV?$allocator@P6A_NPEAU_object@@AEAPEAX@Z@std@@@2@@std@@@std@@@std@@@1@@Z
    ??0?$_Uninitialized_backout@PEAV?$_List_unchecked_iterator@V?$_List_val@U?$_List_simple_types@U?$pair@QEAU_typeobject@@V?$vector@PEAUtype_info@detail@pybind11@@V?$allocator@PEAUtype_info@detail@pybind11@@@std@@@std@@@std@@@std@@@std@@@std@@@std@@QEAA@PEAV?$_List_unchecked_iterator@V?$_List_val@U?$_List_simple_types@U?$pair@QEAU_typeobject@@V?$vector@PEAUtype_info@detail@pybind11@@V?$allocator@PEAUtype_info@detail@pybind11@@@std@@@std@@@std@@@std@@@std@@@1@@Z
    ??0?$_Uninitialized_backout@PEAV?$_List_unchecked_iterator@V?$_List_val@U?$_List_simple_types@U?$pair@QEBU_object@@V?$vector@PEAU_object@@V?$allocator@PEAU_object@@@std@@@std@@@std@@@std@@@std@@@std@@@std@@QEAA@PEAV?$_List_unchecked_iterator@V?$_List_val@U?$_List_simple_types@U?$pair@QEBU_object@@V?$vector@PEAU_object@@V?$allocator@PEAU_object@@@std@@@std@@@std@@@std@@@std@@@1@@Z
    ??0?$_Uninitialized_backout@PEAV?$_List_unchecked_iterator@V?$_List_val@U?$_List_simple_types@U?$pair@QEBXPEAUinstance@detail@pybind11@@@std@@@std@@@std@@@std@@@std@@QEAA@PEAV?$_List_unchecked_iterator@V?$_List_val@U?$_List_simple_types@U?$pair@QEBXPEAUinstance@detail@pybind11@@@std@@@std@@@std@@@1@@Z
    ??0?$_Uninitialized_backout_al@V?$allocator@I@std@@@std@@QEAA@PEAIAEAV?$allocator@I@1@@Z
    ??0?$_Uninitialized_backout_al@V?$allocator@N@std@@@std@@QEAA@PEANAEAV?$allocator@N@1@@Z
    ??0?$_Uninitialized_backout_al@V?$allocator@Ufunction_call@detail@pybind11@@@std@@@std@@QEAA@PEAUfunction_call@detail@pybind11@@AEAV?$allocator@Ufunction_call@detail@pybind11@@@1@@Z
    ??0?$_Uset_traits@PEAU_object@@V?$_Uhash_compare@PEAU_object@@U?$hash@PEAU_object@@@std@@U?$equal_to@PEAU_object@@@3@@std@@V?$allocator@PEAU_object@@@3@$0A@@std@@QEAA@AEBV?$_Uhash_compare@PEAU_object@@U?$hash@PEAU_object@@@std@@U?$equal_to@PEAU_object@@@3@@1@@Z
    ??0?$_Uset_traits@U?$pair@PEBU_object@@PEBD@std@@V?$_Uhash_compare@U?$pair@PEBU_object@@PEBD@std@@Uoverride_hash@detail@pybind11@@U?$equal_to@U?$pair@PEBU_object@@PEBD@std@@@2@@2@V?$allocator@U?$pair@PEBU_object@@PEBD@std@@@2@$0A@@std@@QEAA@AEBV?$_Uhash_compare@U?$pair@PEBU_object@@PEBD@std@@Uoverride_hash@detail@pybind11@@U?$equal_to@U?$pair@PEBU_object@@PEBD@std@@@2@@1@@Z
    ??0?$_Vb_const_iterator@U?$_Wrap_alloc@V?$allocator@I@std@@@std@@@std@@QEAA@PEBIPEBU_Container_base0@1@@Z
    ??0?$_Vb_iter_base@U?$_Wrap_alloc@V?$allocator@I@std@@@std@@@std@@QEAA@PEBI_KPEBU_Container_base0@1@@Z
    ??0?$_Vb_reference@U?$_Wrap_alloc@V?$allocator@I@std@@@std@@@std@@QEAA@AEBV?$_Vb_iter_base@U?$_Wrap_alloc@V?$allocator@I@std@@@std@@@1@@Z
    ??0?$_Vb_val@V?$allocator@_N@std@@@std@@QEAA@$$QEAV01@@Z
    ??0?$_Vb_val@V?$allocator@_N@std@@@std@@QEAA@AEBV?$allocator@_N@1@@Z
    ??0?$_Vector_const_iterator@V?$_Vector_val@U?$_Simple_types@I@std@@@std@@@std@@QEAA@PEAIPEBU_Container_base0@1@@Z
    ??0?$_Vector_const_iterator@V?$_Vector_val@U?$_Simple_types@N@std@@@std@@@std@@QEAA@PEANPEBU_Container_base0@1@@Z
    ??0?$_Vector_const_iterator@V?$_Vector_val@U?$_Simple_types@PEAD@std@@@std@@@std@@QEAA@PEAPEADPEBU_Container_base0@1@@Z
    ??0?$_Vector_const_iterator@V?$_Vector_val@U?$_Simple_types@PEAU_object@@@std@@@std@@@std@@QEAA@PEAPEAU_object@@PEBU_Container_base0@1@@Z
    ??0?$_Vector_const_iterator@V?$_Vector_val@U?$_Simple_types@PEAUtype_info@detail@pybind11@@@std@@@std@@@std@@QEAA@PEAPEAUtype_info@detail@pybind11@@PEBU_Container_base0@1@@Z
    ??0?$_Vector_const_iterator@V?$_Vector_val@U?$_Simple_types@U?$pair@PEBVtype_info@@P6APEAXPEAX@Z@std@@@std@@@std@@@std@@QEAA@PEAU?$pair@PEBVtype_info@@P6APEAXPEAX@Z@1@PEBU_Container_base0@1@@Z
    ??0?$_Vector_const_iterator@V?$_Vector_val@U?$_Simple_types@Uargument_record@detail@pybind11@@@std@@@std@@@std@@QEAA@PEAUargument_record@detail@pybind11@@PEBU_Container_base0@1@@Z
    ??0?$_Vector_const_iterator@V?$_Vector_val@U?$_Simple_types@Ufunction_call@detail@pybind11@@@std@@@std@@@std@@QEAA@PEAUfunction_call@detail@pybind11@@PEBU_Container_base0@1@@Z
    ??0?$_Vector_val@U?$_Simple_types@I@std@@@std@@QEAA@PEAI00@Z
    ??0?$_Vector_val@U?$_Simple_types@I@std@@@std@@QEAA@XZ
    ??0?$_Vector_val@U?$_Simple_types@N@std@@@std@@QEAA@XZ
    ??0?$_Vector_val@U?$_Simple_types@PEAD@std@@@std@@QEAA@XZ
    ??0?$_Vector_val@U?$_Simple_types@PEAU_object@@@std@@@std@@QEAA@XZ
    ??0?$_Vector_val@U?$_Simple_types@PEAU_typeobject@@@std@@@std@@QEAA@XZ
    ??0?$_Vector_val@U?$_Simple_types@PEAUtype_info@detail@pybind11@@@std@@@std@@QEAA@XZ
    ??0?$_Vector_val@U?$_Simple_types@Uargument_record@detail@pybind11@@@std@@@std@@QEAA@XZ
    ??0?$_Vector_val@U?$_Simple_types@Ufunction_call@detail@pybind11@@@std@@@std@@QEAA@XZ
    ??0?$_Vector_val@U?$_Simple_types@V?$_List_unchecked_const_iterator@V?$_List_val@U?$_List_simple_types@PEAU_object@@@std@@@std@@U_Iterator_base0@2@@std@@@std@@@std@@QEAA@XZ
    ??0?$_Vector_val@U?$_Simple_types@V?$_List_unchecked_const_iterator@V?$_List_val@U?$_List_simple_types@U?$pair@PEBU_object@@PEBD@std@@@std@@@std@@U_Iterator_base0@2@@std@@@std@@@std@@QEAA@XZ
    ??0?$_Vector_val@U?$_Simple_types@V?$_List_unchecked_iterator@V?$_List_val@U?$_List_simple_types@U?$pair@$$CBV?$basic_string@DU?$char_traits@D@std@@V?$allocator@D@2@@std@@PEAX@std@@@std@@@std@@@std@@@std@@@std@@QEAA@XZ
    ??0?$_Vector_val@U?$_Simple_types@V?$_List_unchecked_iterator@V?$_List_val@U?$_List_simple_types@U?$pair@$$CBVtype_index@std@@PEAUtype_info@detail@pybind11@@@std@@@std@@@std@@@std@@@std@@@std@@QEAA@XZ
    ??0?$_Vector_val@U?$_Simple_types@V?$_List_unchecked_iterator@V?$_List_val@U?$_List_simple_types@U?$pair@$$CBVtype_index@std@@V?$vector@P6A_NPEAU_object@@AEAPEAX@ZV?$allocator@P6A_NPEAU_object@@AEAPEAX@Z@std@@@2@@std@@@std@@@std@@@std@@@std@@@std@@QEAA@XZ
    ??0?$_Vector_val@U?$_Simple_types@V?$_List_unchecked_iterator@V?$_List_val@U?$_List_simple_types@U?$pair@QEAU_typeobject@@V?$vector@PEAUtype_info@detail@pybind11@@V?$allocator@PEAUtype_info@detail@pybind11@@@std@@@std@@@std@@@std@@@std@@@std@@@std@@@std@@QEAA@XZ
    ??0?$_Vector_val@U?$_Simple_types@V?$_List_unchecked_iterator@V?$_List_val@U?$_List_simple_types@U?$pair@QEBU_object@@V?$vector@PEAU_object@@V?$allocator@PEAU_object@@@std@@@std@@@std@@@std@@@std@@@std@@@std@@@std@@QEAA@XZ
    ??0?$_Vector_val@U?$_Simple_types@V?$_List_unchecked_iterator@V?$_List_val@U?$_List_simple_types@U?$pair@QEBXPEAUinstance@detail@pybind11@@@std@@@std@@@std@@@std@@@std@@@std@@QEAA@XZ
    ??0?$_Vector_val@U?$_Simple_types@Vhandle@pybind11@@@std@@@std@@QEAA@PEAVhandle@pybind11@@00@Z
    ??0?$_Vector_val@U?$_Simple_types@Vhandle@pybind11@@@std@@@std@@QEAA@XZ
    ??0?$accessor@Ugeneric_item@accessor_policies@detail@pybind11@@@detail@pybind11@@QEAA@Vhandle@2@Vobject@2@@Z
    ??0?$accessor@Ustr_attr@accessor_policies@detail@pybind11@@@detail@pybind11@@QEAA@Vhandle@2@PEBD@Z
    ??0?$accessor@Utuple_item@accessor_policies@detail@pybind11@@@detail@pybind11@@QEAA@Vhandle@2@_K@Z
    ??0?$allocator@D@std@@QEAA@XZ
    ??0?$allocator@N@std@@QEAA@XZ
    ??0?$allocator@PEAD@std@@QEAA@XZ
    ??0?$allocator@PEAU_object@@@std@@QEAA@XZ
    ??0?$allocator@PEAU_typeobject@@@std@@QEAA@XZ
    ??0?$allocator@PEAUtype_info@detail@pybind11@@@std@@QEAA@XZ
    ??0?$allocator@U?$_Flist_node@P6AXVexception_ptr@std@@@ZPEAX@std@@@std@@QEAA@XZ
    ??0?$allocator@U?$_Flist_node@V?$basic_string@DU?$char_traits@D@std@@V?$allocator@D@2@@std@@PEAX@std@@@std@@QEAA@XZ
    ??0?$allocator@U?$pair@$$CBV?$basic_string@DU?$char_traits@D@std@@V?$allocator@D@2@@std@@PEAX@std@@@std@@QEAA@XZ
    ??0?$allocator@U?$pair@$$CBVtype_index@std@@PEAUtype_info@detail@pybind11@@@std@@@std@@QEAA@XZ
    ??0?$allocator@U?$pair@$$CBVtype_index@std@@V?$vector@P6A_NPEAU_object@@AEAPEAX@ZV?$allocator@P6A_NPEAU_object@@AEAPEAX@Z@std@@@2@@std@@@std@@QEAA@XZ
    ??0?$allocator@U?$pair@PEBU_object@@PEBD@std@@@std@@QEAA@XZ
    ??0?$allocator@U?$pair@QEAU_typeobject@@V?$vector@PEAUtype_info@detail@pybind11@@V?$allocator@PEAUtype_info@detail@pybind11@@@std@@@std@@@std@@@std@@QEAA@XZ
    ??0?$allocator@U?$pair@QEBU_object@@V?$vector@PEAU_object@@V?$allocator@PEAU_object@@@std@@@std@@@std@@@std@@QEAA@XZ
    ??0?$allocator@U?$pair@QEBXPEAUinstance@detail@pybind11@@@std@@@std@@QEAA@XZ
    ??0?$allocator@Uargument_record@detail@pybind11@@@std@@QEAA@XZ
    ??0?$allocator@Ufunction_call@detail@pybind11@@@std@@QEAA@XZ
    ??0?$allocator@Vhandle@pybind11@@@std@@QEAA@XZ
    ??0?$allocator@_N@std@@QEAA@XZ
    ??0?$argument_loader@JNNNNNNNNNJNJJNN@detail@pybind11@@QEAA@XZ
    ??0?$argument_loader@NNNNNNNNJNN@detail@pybind11@@QEAA@XZ
    ??0?$argument_loader@Vhandle@pybind11@@@detail@pybind11@@QEAA@XZ
    ??0?$basic_string@DU?$char_traits@D@std@@V?$allocator@D@2@@std@@QEAA@$$QEAV01@@Z
    ??0?$basic_string@DU?$char_traits@D@std@@V?$allocator@D@2@@std@@QEAA@AEBV01@@Z
    ??0?$basic_string@DU?$char_traits@D@std@@V?$allocator@D@2@@std@@QEAA@AEBV01@_K1AEBV?$allocator@D@1@@Z
    ??0?$basic_string@DU?$char_traits@D@std@@V?$allocator@D@2@@std@@QEAA@QEBD@Z
    ??0?$basic_string@DU?$char_traits@D@std@@V?$allocator@D@2@@std@@QEAA@QEBD_K@Z
    ??0?$basic_string@DU?$char_traits@D@std@@V?$allocator@D@2@@std@@QEAA@U_String_constructor_concat_tag@1@AEAV01@1@Z
    ??0?$basic_string@DU?$char_traits@D@std@@V?$allocator@D@2@@std@@QEAA@U_String_constructor_concat_tag@1@AEBV01@QEBD_K23@Z
    ??0?$basic_string@DU?$char_traits@D@std@@V?$allocator@D@2@@std@@QEAA@XZ
    ??0?$forward_list@P6AXVexception_ptr@std@@@ZV?$allocator@P6AXVexception_ptr@std@@@Z@2@@std@@QEAA@XZ
    ??0?$forward_list@V?$basic_string@DU?$char_traits@D@std@@V?$allocator@D@2@@std@@V?$allocator@V?$basic_string@DU?$char_traits@D@std@@V?$allocator@D@2@@std@@@2@@std@@QEAA@XZ
    ??0?$generic_iterator@Vdict_readonly@iterator_policies@detail@pybind11@@@detail@pybind11@@QEAA@Vhandle@2@_J@Z
    ??0?$generic_iterator@Vdict_readonly@iterator_policies@detail@pybind11@@@detail@pybind11@@QEAA@XZ
    ??0?$generic_iterator@Vsequence_fast_readonly@iterator_policies@detail@pybind11@@@detail@pybind11@@QEAA@Vhandle@2@_J@Z
    ??0?$list@PEAU_object@@V?$allocator@PEAU_object@@@std@@@std@@QEAA@AEBV?$allocator@PEAU_object@@@1@@Z
    ??0?$list@U?$pair@$$CBV?$basic_string@DU?$char_traits@D@std@@V?$allocator@D@2@@std@@PEAX@std@@V?$allocator@U?$pair@$$CBV?$basic_string@DU?$char_traits@D@std@@V?$allocator@D@2@@std@@PEAX@std@@@2@@std@@QEAA@AEBV?$allocator@U?$pair@$$CBV?$basic_string@DU?$char_traits@D@std@@V?$allocator@D@2@@std@@PEAX@std@@@1@@Z
    ??0?$list@U?$pair@$$CBVtype_index@std@@PEAUtype_info@detail@pybind11@@@std@@V?$allocator@U?$pair@$$CBVtype_index@std@@PEAUtype_info@detail@pybind11@@@std@@@2@@std@@QEAA@AEBV?$allocator@U?$pair@$$CBVtype_index@std@@PEAUtype_info@detail@pybind11@@@std@@@1@@Z
    ??0?$list@U?$pair@$$CBVtype_index@std@@V?$vector@P6A_NPEAU_object@@AEAPEAX@ZV?$allocator@P6A_NPEAU_object@@AEAPEAX@Z@std@@@2@@std@@V?$allocator@U?$pair@$$CBVtype_index@std@@V?$vector@P6A_NPEAU_object@@AEAPEAX@ZV?$allocator@P6A_NPEAU_object@@AEAPEAX@Z@std@@@2@@std@@@2@@std@@QEAA@AEBV?$allocator@U?$pair@$$CBVtype_index@std@@V?$vector@P6A_NPEAU_object@@AEAPEAX@ZV?$allocator@P6A_NPEAU_object@@AEAPEAX@Z@std@@@2@@std@@@1@@Z
    ??0?$list@U?$pair@PEBU_object@@PEBD@std@@V?$allocator@U?$pair@PEBU_object@@PEBD@std@@@2@@std@@QEAA@AEBV?$allocator@U?$pair@PEBU_object@@PEBD@std@@@1@@Z
    ??0?$list@U?$pair@QEAU_typeobject@@V?$vector@PEAUtype_info@detail@pybind11@@V?$allocator@PEAUtype_info@detail@pybind11@@@std@@@std@@@std@@V?$allocator@U?$pair@QEAU_typeobject@@V?$vector@PEAUtype_info@detail@pybind11@@V?$allocator@PEAUtype_info@detail@pybind11@@@std@@@std@@@std@@@2@@std@@QEAA@AEBV?$allocator@U?$pair@QEAU_typeobject@@V?$vector@PEAUtype_info@detail@pybind11@@V?$allocator@PEAUtype_info@detail@pybind11@@@std@@@std@@@std@@@1@@Z
    ??0?$list@U?$pair@QEBU_object@@V?$vector@PEAU_object@@V?$allocator@PEAU_object@@@std@@@std@@@std@@V?$allocator@U?$pair@QEBU_object@@V?$vector@PEAU_object@@V?$allocator@PEAU_object@@@std@@@std@@@std@@@2@@std@@QEAA@AEBV?$allocator@U?$pair@QEBU_object@@V?$vector@PEAU_object@@V?$allocator@PEAU_object@@@std@@@std@@@std@@@1@@Z
    ??0?$list@U?$pair@QEBXPEAUinstance@detail@pybind11@@@std@@V?$allocator@U?$pair@QEBXPEAUinstance@detail@pybind11@@@std@@@2@@std@@QEAA@AEBV?$allocator@U?$pair@QEBXPEAUinstance@detail@pybind11@@@std@@@1@@Z
    ??0?$shared_ptr@Uerror_fetch_and_normalize@detail@pybind11@@@std@@QEAA@AEBV01@@Z
    ??0?$string_caster@V?$basic_string@DU?$char_traits@D@std@@V?$allocator@D@2@@std@@$0A@@detail@pybind11@@QEAA@XZ
    ??0?$tuple@$$V@std@@QEAA@AEBV01@@Z
    ??0?$tuple@AEBQEAU_typeobject@@@std@@QEAA@$$QEAV01@@Z
    ??0?$type_caster@V?$basic_string@DU?$char_traits@D@std@@V?$allocator@D@2@@std@@X@detail@pybind11@@QEAA@XZ
    ??0?$type_caster@Vhandle@pybind11@@X@detail@pybind11@@QEAA@XZ
    ??0?$unordered_map@PEAU_typeobject@@V?$vector@PEAUtype_info@detail@pybind11@@V?$allocator@PEAUtype_info@detail@pybind11@@@std@@@std@@U?$hash@PEAU_typeobject@@@3@U?$equal_to@PEAU_typeobject@@@3@V?$allocator@U?$pair@QEAU_typeobject@@V?$vector@PEAUtype_info@detail@pybind11@@V?$allocator@PEAUtype_info@detail@pybind11@@@std@@@std@@@std@@@3@@std@@QEAA@XZ
    ??0?$unordered_map@PEBU_object@@V?$vector@PEAU_object@@V?$allocator@PEAU_object@@@std@@@std@@U?$hash@PEBU_object@@@3@U?$equal_to@PEBU_object@@@3@V?$allocator@U?$pair@QEBU_object@@V?$vector@PEAU_object@@V?$allocator@PEAU_object@@@std@@@std@@@std@@@3@@std@@QEAA@XZ
    ??0?$unordered_map@V?$basic_string@DU?$char_traits@D@std@@V?$allocator@D@2@@std@@PEAXU?$hash@V?$basic_string@DU?$char_traits@D@std@@V?$allocator@D@2@@std@@@2@U?$equal_to@V?$basic_string@DU?$char_traits@D@std@@V?$allocator@D@2@@std@@@2@V?$allocator@U?$pair@$$CBV?$basic_string@DU?$char_traits@D@std@@V?$allocator@D@2@@std@@PEAX@std@@@2@@std@@QEAA@XZ
    ??0?$unordered_map@Vtype_index@std@@PEAUtype_info@detail@pybind11@@U?$hash@Vtype_index@std@@@2@U?$equal_to@Vtype_index@std@@@2@V?$allocator@U?$pair@$$CBVtype_index@std@@PEAUtype_info@detail@pybind11@@@std@@@2@@std@@QEAA@XZ
    ??0?$unordered_map@Vtype_index@std@@V?$vector@P6A_NPEAU_object@@AEAPEAX@ZV?$allocator@P6A_NPEAU_object@@AEAPEAX@Z@std@@@2@U?$hash@Vtype_index@std@@@2@U?$equal_to@Vtype_index@std@@@2@V?$allocator@U?$pair@$$CBVtype_index@std@@V?$vector@P6A_NPEAU_object@@AEAPEAX@ZV?$allocator@P6A_NPEAU_object@@AEAPEAX@Z@std@@@2@@std@@@2@@std@@QEAA@XZ
    ??0?$unordered_multimap@PEBXPEAUinstance@detail@pybind11@@U?$hash@PEBX@std@@U?$equal_to@PEBX@5@V?$allocator@U?$pair@QEBXPEAUinstance@detail@pybind11@@@std@@@5@@std@@QEAA@XZ
    ??0?$unordered_set@PEAU_object@@U?$hash@PEAU_object@@@std@@U?$equal_to@PEAU_object@@@3@V?$allocator@PEAU_object@@@3@@std@@QEAA@XZ
    ??0?$unordered_set@U?$pair@PEBU_object@@PEBD@std@@Uoverride_hash@detail@pybind11@@U?$equal_to@U?$pair@PEBU_object@@PEBD@std@@@2@V?$allocator@U?$pair@PEBU_object@@PEBD@std@@@2@@std@@QEAA@XZ
    ??0?$vector@IV?$allocator@I@std@@@std@@QEAA@$$QEAV01@@Z
    ??0?$vector@IV?$allocator@I@std@@@std@@QEAA@AEBV?$allocator@I@1@@Z
    ??0?$vector@NV?$allocator@N@std@@@std@@QEAA@AEBV01@@Z
    ??0?$vector@PEADV?$allocator@PEAD@std@@@std@@QEAA@XZ
    ??0?$vector@PEAU_object@@V?$allocator@PEAU_object@@@std@@@std@@QEAA@XZ
    ??0?$vector@PEAU_typeobject@@V?$allocator@PEAU_typeobject@@@std@@@std@@QEAA@XZ
    ??0?$vector@PEAUtype_info@detail@pybind11@@V?$allocator@PEAUtype_info@detail@pybind11@@@std@@@std@@QEAA@XZ
    ??0?$vector@Uargument_record@detail@pybind11@@V?$allocator@Uargument_record@detail@pybind11@@@std@@@std@@QEAA@XZ
    ??0?$vector@Ufunction_call@detail@pybind11@@V?$allocator@Ufunction_call@detail@pybind11@@@std@@@std@@QEAA@XZ
    ??0?$vector@Vhandle@pybind11@@V?$allocator@Vhandle@pybind11@@@std@@@std@@QEAA@$$QEAV01@@Z
    ??0?$vector@Vhandle@pybind11@@V?$allocator@Vhandle@pybind11@@@std@@@std@@QEAA@XZ
    ??0?$vector@_NV?$allocator@_N@std@@@std@@QEAA@$$QEAV01@@Z
    ??0?$vector@_NV?$allocator@_N@std@@@std@@QEAA@XZ
    ??0_Bxty@?$_String_val@U?$_Simple_types@D@std@@@std@@QEAA@XZ
    ??0_Clear_guard@?$_Hash@V?$_Umap_traits@PEAU_typeobject@@V?$vector@PEAUtype_info@detail@pybind11@@V?$allocator@PEAUtype_info@detail@pybind11@@@std@@@std@@V?$_Uhash_compare@PEAU_typeobject@@U?$hash@PEAU_typeobject@@@std@@U?$equal_to@PEAU_typeobject@@@3@@3@V?$allocator@U?$pair@QEAU_typeobject@@V?$vector@PEAUtype_info@detail@pybind11@@V?$allocator@PEAUtype_info@detail@pybind11@@@std@@@std@@@std@@@3@$0A@@std@@@std@@QEAA@QEAV12@@Z
    ??0_Fake_proxy_ptr_impl@std@@QEAA@AEBU_Fake_allocator@1@AEBU_Container_base0@1@@Z
    ??0_Range_eraser@?$_Hash@V?$_Umap_traits@PEAU_typeobject@@V?$vector@PEAUtype_info@detail@pybind11@@V?$allocator@PEAUtype_info@detail@pybind11@@@std@@@std@@V?$_Uhash_compare@PEAU_typeobject@@U?$hash@PEAU_typeobject@@@std@@U?$equal_to@PEAU_typeobject@@@3@@3@V?$allocator@U?$pair@QEAU_typeobject@@V?$vector@PEAUtype_info@detail@pybind11@@V?$allocator@PEAUtype_info@detail@pybind11@@@std@@@std@@@std@@@3@$0A@@std@@@std@@QEAA@AEAV?$list@U?$pair@QEAU_typeobject@@V?$vector@PEAUtype_info@detail@pybind11@@V?$allocator@PEAUtype_info@detail@pybind11@@@std@@@std@@@std@@V?$allocator@U?$pair@QEAU_typeobject@@V?$vector@PEAUtype_info@detail@pybind11@@V?$allocator@PEAUtype_info@detail@pybind11@@@std@@@std@@@std@@@2@@2@QEAU?$_List_node@U?$pair@QEAU_typeobject@@V?$vector@PEAUtype_info@detail@pybind11@@V?$allocator@PEAUtype_info@detail@pybind11@@@std@@@std@@@std@@PEAX@2@@Z
    ??0_Ref_count_base@std@@IEAA@XZ
    ??0arg@pybind11@@QEAA@PEBD@Z
    ??0argument_record@detail@pybind11@@QEAA@PEBD0Vhandle@2@_N2@Z
    ??0bad_alloc@std@@AEAA@QEBD@Z
    ??0bad_alloc@std@@QEAA@AEBV01@@Z
    ??0bad_alloc@std@@QEAA@XZ
    ??0bad_array_new_length@std@@QEAA@AEBV01@@Z
    ??0bad_array_new_length@std@@QEAA@XZ
    ??0builtin_exception@pybind11@@QEAA@AEBV01@@Z
    ??0capsule@pybind11@@QEAA@PEBXPEBDP6AXPEAU_object@@@Z@Z
    ??0capsule@pybind11@@QEAA@PEBXPEBDP6AXPEAX@Z@Z
    ??0capsule@pybind11@@QEAA@Vhandle@1@Uborrowed_t@object@1@@Z
    ??0cast_error@pybind11@@QEAA@AEBV01@@Z
    ??0dict@pybind11@@QEAA@$$QEAVobject@1@@Z
    ??0dict@pybind11@@QEAA@Vhandle@1@Uborrowed_t@object@1@@Z
    ??0dict@pybind11@@QEAA@Vhandle@1@Ustolen_t@object@1@@Z
    ??0dict@pybind11@@QEAA@XZ
    ??0dict_readonly@iterator_policies@detail@pybind11@@IEAA@Vhandle@3@_J@Z
    ??0dict_readonly@iterator_policies@detail@pybind11@@IEAA@XZ
    ??0error_already_set@pybind11@@QEAA@AEBV01@@Z
    ??0error_already_set@pybind11@@QEAA@XZ
    ??0error_fetch_and_normalize@detail@pybind11@@QEAA@PEBD@Z
    ??0error_scope@pybind11@@QEAA@XZ
    ??0exception@std@@QEAA@AEBV01@@Z
    ??0exception@std@@QEAA@QEBD@Z
    ??0exception@std@@QEAA@QEBDH@Z
    ??0exception@std@@QEAA@XZ
    ??0exception_ptr@std@@QEAA@AEBV01@@Z
    ??0exception_ptr@std@@QEAA@XZ
    ??0function@pybind11@@QEAA@XZ
    ??0function_call@detail@pybind11@@QEAA@$$QEAU012@@Z
    ??0function_call@detail@pybind11@@QEAA@AEBUfunction_record@12@Vhandle@2@@Z
    ??0function_record@detail@pybind11@@QEAA@XZ
    ??0gil_scoped_acquire@pybind11@@QEAA@XZ
    ??0gil_scoped_acquire_local@?1??get_internals@detail@pybind11@@YAAEAUinternals@23@XZ@QEAA@XZ
    ??0handle@pybind11@@QEAA@XZ
    ??0internals@detail@pybind11@@QEAA@XZ
    ??0iterator@values_and_holders@detail@pybind11@@AEAA@PEAUinstance@23@PEBV?$vector@PEAUtype_info@detail@pybind11@@V?$allocator@PEAUtype_info@detail@pybind11@@@std@@@std@@@Z
    ??0iterator@values_and_holders@detail@pybind11@@AEAA@_K@Z
    ??0loader_life_support@detail@pybind11@@QEAA@XZ
    ??0local_internals@detail@pybind11@@QEAA@XZ
    ??0mod_gil_not_used@pybind11@@QEAA@_N@Z
    ??0module_@pybind11@@QEAA@Vhandle@1@Uborrowed_t@object@1@@Z
    ??0name@pybind11@@QEAA@PEBD@Z
    ??0none@pybind11@@QEAA@XZ
    ??0object@pybind11@@QEAA@$$QEAV01@@Z
    ??0object@pybind11@@QEAA@AEBV01@@Z
    ??0object@pybind11@@QEAA@Vhandle@1@Uborrowed_t@01@@Z
    ??0object@pybind11@@QEAA@Vhandle@1@Ustolen_t@01@@Z
    ??0object@pybind11@@QEAA@XZ
    ??0runtime_error@std@@QEAA@AEBV01@@Z
    ??0runtime_error@std@@QEAA@AEBV?$basic_string@DU?$char_traits@D@std@@V?$allocator@D@2@@1@@Z
    ??0runtime_error@std@@QEAA@PEBD@Z
    ??0scope@pybind11@@QEAA@AEBVhandle@1@@Z
    ??0sequence_fast_readonly@iterator_policies@detail@pybind11@@IEAA@Vhandle@3@_J@Z
    ??0sibling@pybind11@@QEAA@AEBVhandle@1@@Z
    ??0str@pybind11@@QEAA@$$QEAVobject@1@@Z
    ??0str@pybind11@@QEAA@PEBD@Z
    ??0str@pybind11@@QEAA@Vhandle@1@@Z
    ??0str@pybind11@@QEAA@Vhandle@1@Ustolen_t@object@1@@Z
    ??0strdup_guard@cpp_function@pybind11@@QEAA@XZ
    ??0tuple@pybind11@@QEAA@Vhandle@1@Uborrowed_t@object@1@@Z
    ??0type_index@std@@QEAA@AEBVtype_info@@@Z
    ??0value_and_holder@detail@pybind11@@QEAA@PEAUinstance@12@PEBUtype_info@12@_K2@Z
    ??0value_and_holder@detail@pybind11@@QEAA@XZ
    ??0value_and_holder@detail@pybind11@@QEAA@_K@Z
    ??0values_and_holders@detail@pybind11@@QEAA@PEAU_object@@@Z
    ??0values_and_holders@detail@pybind11@@QEAA@PEAUinstance@12@@Z
    ??0weakref@pybind11@@QEAA@Vhandle@1@0@Z
    ??1?$_Alloc_construct_ptr@V?$allocator@U?$_Flist_node@P6AXVexception_ptr@std@@@ZPEAX@std@@@std@@@std@@QEAA@XZ
    ??1?$_Alloc_construct_ptr@V?$allocator@U?$_List_node@U?$pair@QEAU_typeobject@@V?$vector@PEAUtype_info@detail@pybind11@@V?$allocator@PEAUtype_info@detail@pybind11@@@std@@@std@@@std@@PEAX@std@@@std@@@std@@QEAA@XZ
    ??1?$_Alloc_temporary2@V?$allocator@PEAUtype_info@detail@pybind11@@@std@@@std@@QEAA@XZ
    ??1?$_Compressed_pair@V?$allocator@D@std@@V?$_String_val@U?$_Simple_types@D@std@@@2@$00@std@@QEAA@XZ
    ??1?$_Hash@V?$_Umap_traits@PEAU_typeobject@@V?$vector@PEAUtype_info@detail@pybind11@@V?$allocator@PEAUtype_info@detail@pybind11@@@std@@@std@@V?$_Uhash_compare@PEAU_typeobject@@U?$hash@PEAU_typeobject@@@std@@U?$equal_to@PEAU_typeobject@@@3@@3@V?$allocator@U?$pair@QEAU_typeobject@@V?$vector@PEAUtype_info@detail@pybind11@@V?$allocator@PEAUtype_info@detail@pybind11@@@std@@@std@@@std@@@3@$0A@@std@@@std@@QEAA@XZ
    ??1?$_Hash@V?$_Umap_traits@PEBU_object@@V?$vector@PEAU_object@@V?$allocator@PEAU_object@@@std@@@std@@V?$_Uhash_compare@PEBU_object@@U?$hash@PEBU_object@@@std@@U?$equal_to@PEBU_object@@@3@@3@V?$allocator@U?$pair@QEBU_object@@V?$vector@PEAU_object@@V?$allocator@PEAU_object@@@std@@@std@@@std@@@3@$0A@@std@@@std@@QEAA@XZ
    ??1?$_Hash@V?$_Umap_traits@PEBXPEAUinstance@detail@pybind11@@V?$_Uhash_compare@PEBXU?$hash@PEBX@std@@U?$equal_to@PEBX@2@@std@@V?$allocator@U?$pair@QEBXPEAUinstance@detail@pybind11@@@std@@@5@$00@std@@@std@@QEAA@XZ
    ??1?$_Hash@V?$_Umap_traits@V?$basic_string@DU?$char_traits@D@std@@V?$allocator@D@2@@std@@PEAXV?$_Uhash_compare@V?$basic_string@DU?$char_traits@D@std@@V?$allocator@D@2@@std@@U?$hash@V?$basic_string@DU?$char_traits@D@std@@V?$allocator@D@2@@std@@@2@U?$equal_to@V?$basic_string@DU?$char_traits@D@std@@V?$allocator@D@2@@std@@@2@@2@V?$allocator@U?$pair@$$CBV?$basic_string@DU?$char_traits@D@std@@V?$allocator@D@2@@std@@PEAX@std@@@2@$0A@@std@@@std@@QEAA@XZ
    ??1?$_Hash@V?$_Umap_traits@Vtype_index@std@@PEAUtype_info@detail@pybind11@@V?$_Uhash_compare@Vtype_index@std@@U?$hash@Vtype_index@std@@@2@U?$equal_to@Vtype_index@std@@@2@@2@V?$allocator@U?$pair@$$CBVtype_index@std@@PEAUtype_info@detail@pybind11@@@std@@@2@$0A@@std@@@std@@QEAA@XZ
    ??1?$_Hash@V?$_Umap_traits@Vtype_index@std@@V?$vector@P6A_NPEAU_object@@AEAPEAX@ZV?$allocator@P6A_NPEAU_object@@AEAPEAX@Z@std@@@2@V?$_Uhash_compare@Vtype_index@std@@U?$hash@Vtype_index@std@@@2@U?$equal_to@Vtype_index@std@@@2@@2@V?$allocator@U?$pair@$$CBVtype_index@std@@V?$vector@P6A_NPEAU_object@@AEAPEAX@ZV?$allocator@P6A_NPEAU_object@@AEAPEAX@Z@std@@@2@@std@@@2@$0A@@std@@@std@@QEAA@XZ
    ??1?$_Hash@V?$_Uset_traits@PEAU_object@@V?$_Uhash_compare@PEAU_object@@U?$hash@PEAU_object@@@std@@U?$equal_to@PEAU_object@@@3@@std@@V?$allocator@PEAU_object@@@3@$0A@@std@@@std@@QEAA@XZ
    ??1?$_Hash@V?$_Uset_traits@U?$pair@PEBU_object@@PEBD@std@@V?$_Uhash_compare@U?$pair@PEBU_object@@PEBD@std@@Uoverride_hash@detail@pybind11@@U?$equal_to@U?$pair@PEBU_object@@PEBD@std@@@2@@2@V?$allocator@U?$pair@PEBU_object@@PEBD@std@@@2@$0A@@std@@@std@@QEAA@XZ
    ??1?$_Hash_vec@V?$allocator@V?$_List_unchecked_const_iterator@V?$_List_val@U?$_List_simple_types@PEAU_object@@@std@@@std@@U_Iterator_base0@2@@std@@@std@@@std@@QEAA@XZ
    ??1?$_Hash_vec@V?$allocator@V?$_List_unchecked_const_iterator@V?$_List_val@U?$_List_simple_types@U?$pair@PEBU_object@@PEBD@std@@@std@@@std@@U_Iterator_base0@2@@std@@@std@@@std@@QEAA@XZ
    ??1?$_Hash_vec@V?$allocator@V?$_List_unchecked_iterator@V?$_List_val@U?$_List_simple_types@U?$pair@$$CBV?$basic_string@DU?$char_traits@D@std@@V?$allocator@D@2@@std@@PEAX@std@@@std@@@std@@@std@@@std@@@std@@QEAA@XZ
    ??1?$_Hash_vec@V?$allocator@V?$_List_unchecked_iterator@V?$_List_val@U?$_List_simple_types@U?$pair@$$CBVtype_index@std@@PEAUtype_info@detail@pybind11@@@std@@@std@@@std@@@std@@@std@@@std@@QEAA@XZ
    ??1?$_Hash_vec@V?$allocator@V?$_List_unchecked_iterator@V?$_List_val@U?$_List_simple_types@U?$pair@$$CBVtype_index@std@@V?$vector@P6A_NPEAU_object@@AEAPEAX@ZV?$allocator@P6A_NPEAU_object@@AEAPEAX@Z@std@@@2@@std@@@std@@@std@@@std@@@std@@@std@@QEAA@XZ
    ??1?$_Hash_vec@V?$allocator@V?$_List_unchecked_iterator@V?$_List_val@U?$_List_simple_types@U?$pair@QEAU_typeobject@@V?$vector@PEAUtype_info@detail@pybind11@@V?$allocator@PEAUtype_info@detail@pybind11@@@std@@@std@@@std@@@std@@@std@@@std@@@std@@@std@@QEAA@XZ
    ??1?$_Hash_vec@V?$allocator@V?$_List_unchecked_iterator@V?$_List_val@U?$_List_simple_types@U?$pair@QEBU_object@@V?$vector@PEAU_object@@V?$allocator@PEAU_object@@@std@@@std@@@std@@@std@@@std@@@std@@@std@@@std@@QEAA@XZ
    ??1?$_Hash_vec@V?$allocator@V?$_List_unchecked_iterator@V?$_List_val@U?$_List_simple_types@U?$pair@QEBXPEAUinstance@detail@pybind11@@@std@@@std@@@std@@@std@@@std@@@std@@QEAA@XZ
    ??1?$_List_node_emplace_op2@V?$allocator@U?$_List_node@U?$pair@QEAU_typeobject@@V?$vector@PEAUtype_info@detail@pybind11@@V?$allocator@PEAUtype_info@detail@pybind11@@@std@@@std@@@std@@PEAX@std@@@std@@@std@@QEAA@XZ
    ??1?$_Ref_count_resource@PEAUerror_fetch_and_normalize@detail@pybind11@@P6AXPEAU123@@Z@std@@UEAA@XZ
    ??1?$_String_val@U?$_Simple_types@D@std@@@std@@QEAA@XZ
    ??1?$_Temporary_owner_del@PEAUerror_fetch_and_normalize@detail@pybind11@@P6AXPEAU123@@Z@std@@QEAA@XZ
    ??1?$_Tidy_guard@V?$vector@NV?$allocator@N@std@@@std@@@std@@QEAA@XZ
    ??1?$_Tuple_val@V?$vector@NV?$allocator@N@std@@@std@@@std@@QEAA@XZ
    ??1?$_Uninitialized_backout@PEAV?$_List_unchecked_const_iterator@V?$_List_val@U?$_List_simple_types@PEAU_object@@@std@@@std@@U_Iterator_base0@2@@std@@@std@@QEAA@XZ
    ??1?$_Uninitialized_backout@PEAV?$_List_unchecked_const_iterator@V?$_List_val@U?$_List_simple_types@U?$pair@PEBU_object@@PEBD@std@@@std@@@std@@U_Iterator_base0@2@@std@@@std@@QEAA@XZ
    ??1?$_Uninitialized_backout@PEAV?$_List_unchecked_iterator@V?$_List_val@U?$_List_simple_types@U?$pair@$$CBV?$basic_string@DU?$char_traits@D@std@@V?$allocator@D@2@@std@@PEAX@std@@@std@@@std@@@std@@@std@@QEAA@XZ
    ??1?$_Uninitialized_backout@PEAV?$_List_unchecked_iterator@V?$_List_val@U?$_List_simple_types@U?$pair@$$CBVtype_index@std@@PEAUtype_info@detail@pybind11@@@std@@@std@@@std@@@std@@@std@@QEAA@XZ
    ??1?$_Uninitialized_backout@PEAV?$_List_unchecked_iterator@V?$_List_val@U?$_List_simple_types@U?$pair@$$CBVtype_index@std@@V?$vector@P6A_NPEAU_object@@AEAPEAX@ZV?$allocator@P6A_NPEAU_object@@AEAPEAX@Z@std@@@2@@std@@@std@@@std@@@std@@@std@@QEAA@XZ
    ??1?$_Uninitialized_backout@PEAV?$_List_unchecked_iterator@V?$_List_val@U?$_List_simple_types@U?$pair@QEAU_typeobject@@V?$vector@PEAUtype_info@detail@pybind11@@V?$allocator@PEAUtype_info@detail@pybind11@@@std@@@std@@@std@@@std@@@std@@@std@@@std@@QEAA@XZ
    ??1?$_Uninitialized_backout@PEAV?$_List_unchecked_iterator@V?$_List_val@U?$_List_simple_types@U?$pair@QEBU_object@@V?$vector@PEAU_object@@V?$allocator@PEAU_object@@@std@@@std@@@std@@@std@@@std@@@std@@@std@@QEAA@XZ
    ??1?$_Uninitialized_backout@PEAV?$_List_unchecked_iterator@V?$_List_val@U?$_List_simple_types@U?$pair@QEBXPEAUinstance@detail@pybind11@@@std@@@std@@@std@@@std@@@std@@QEAA@XZ
    ??1?$_Uninitialized_backout_al@V?$allocator@I@std@@@std@@QEAA@XZ
    ??1?$_Uninitialized_backout_al@V?$allocator@N@std@@@std@@QEAA@XZ
    ??1?$_Uninitialized_backout_al@V?$allocator@Ufunction_call@detail@pybind11@@@std@@@std@@QEAA@XZ
    ??1?$_Vb_val@V?$allocator@_N@std@@@std@@QEAA@XZ
    ??1?$accessor@Ugeneric_item@accessor_policies@detail@pybind11@@@detail@pybind11@@QEAA@XZ
    ??1?$accessor@Ustr_attr@accessor_policies@detail@pybind11@@@detail@pybind11@@QEAA@XZ
    ??1?$accessor@Utuple_item@accessor_policies@detail@pybind11@@@detail@pybind11@@QEAA@XZ
    ??1?$array@V?$basic_string@DU?$char_traits@D@std@@V?$allocator@D@2@@std@@$00@std@@QEAA@XZ
    ??1?$array@Vobject@pybind11@@$00@std@@QEAA@XZ
    ??1?$array@Vobject@pybind11@@$01@std@@QEAA@XZ
    ??1?$basic_string@DU?$char_traits@D@std@@V?$allocator@D@2@@std@@QEAA@XZ
    ??1?$forward_list@P6AXVexception_ptr@std@@@ZV?$allocator@P6AXVexception_ptr@std@@@Z@2@@std@@QEAA@XZ
    ??1?$forward_list@V?$basic_string@DU?$char_traits@D@std@@V?$allocator@D@2@@std@@V?$allocator@V?$basic_string@DU?$char_traits@D@std@@V?$allocator@D@2@@std@@@2@@std@@QEAA@XZ
    ??1?$list@PEAU_object@@V?$allocator@PEAU_object@@@std@@@std@@QEAA@XZ
    ??1?$list@U?$pair@$$CBV?$basic_string@DU?$char_traits@D@std@@V?$allocator@D@2@@std@@PEAX@std@@V?$allocator@U?$pair@$$CBV?$basic_string@DU?$char_traits@D@std@@V?$allocator@D@2@@std@@PEAX@std@@@2@@std@@QEAA@XZ
    ??1?$list@U?$pair@$$CBVtype_index@std@@PEAUtype_info@detail@pybind11@@@std@@V?$allocator@U?$pair@$$CBVtype_index@std@@PEAUtype_info@detail@pybind11@@@std@@@2@@std@@QEAA@XZ
    ??1?$list@U?$pair@$$CBVtype_index@std@@V?$vector@P6A_NPEAU_object@@AEAPEAX@ZV?$allocator@P6A_NPEAU_object@@AEAPEAX@Z@std@@@2@@std@@V?$allocator@U?$pair@$$CBVtype_index@std@@V?$vector@P6A_NPEAU_object@@AEAPEAX@ZV?$allocator@P6A_NPEAU_object@@AEAPEAX@Z@std@@@2@@std@@@2@@std@@QEAA@XZ
    ??1?$list@U?$pair@PEBU_object@@PEBD@std@@V?$allocator@U?$pair@PEBU_object@@PEBD@std@@@2@@std@@QEAA@XZ
    ??1?$list@U?$pair@QEAU_typeobject@@V?$vector@PEAUtype_info@detail@pybind11@@V?$allocator@PEAUtype_info@detail@pybind11@@@std@@@std@@@std@@V?$allocator@U?$pair@QEAU_typeobject@@V?$vector@PEAUtype_info@detail@pybind11@@V?$allocator@PEAUtype_info@detail@pybind11@@@std@@@std@@@std@@@2@@std@@QEAA@XZ
    ??1?$list@U?$pair@QEBU_object@@V?$vector@PEAU_object@@V?$allocator@PEAU_object@@@std@@@std@@@std@@V?$allocator@U?$pair@QEBU_object@@V?$vector@PEAU_object@@V?$allocator@PEAU_object@@@std@@@std@@@std@@@2@@std@@QEAA@XZ
    ??1?$list@U?$pair@QEBXPEAUinstance@detail@pybind11@@@std@@V?$allocator@U?$pair@QEBXPEAUinstance@detail@pybind11@@@std@@@2@@std@@QEAA@XZ
    ??1?$pair@$$CBV?$basic_string@DU?$char_traits@D@std@@V?$allocator@D@2@@std@@PEAX@std@@QEAA@XZ
    ??1?$pair@$$CBVtype_index@std@@V?$vector@P6A_NPEAU_object@@AEAPEAX@ZV?$allocator@P6A_NPEAU_object@@AEAPEAX@Z@std@@@2@@std@@QEAA@XZ
    ??1?$pair@QEAU_typeobject@@V?$vector@PEAUtype_info@detail@pybind11@@V?$allocator@PEAUtype_info@detail@pybind11@@@std@@@std@@@std@@QEAA@XZ
    ??1?$pair@QEBU_object@@V?$vector@PEAU_object@@V?$allocator@PEAU_object@@@std@@@std@@@std@@QEAA@XZ
    ??1?$shared_ptr@Uerror_fetch_and_normalize@detail@pybind11@@@std@@QEAA@XZ
    ??1?$simple_collector@$00@detail@pybind11@@QEAA@XZ
    ??1?$string_caster@V?$basic_string@DU?$char_traits@D@std@@V?$allocator@D@2@@std@@$0A@@detail@pybind11@@QEAA@XZ
    ??1?$tuple@V?$vector@NV?$allocator@N@std@@@std@@@std@@QEAA@XZ
    ??1?$tuple@V?$vector@NV?$allocator@N@std@@@std@@V12@@std@@QEAA@XZ
    ??1?$type_caster@V?$basic_string@DU?$char_traits@D@std@@V?$allocator@D@2@@std@@X@detail@pybind11@@QEAA@XZ
    ??1?$unique_ptr@Ufunction_record@detail@pybind11@@UInitializingFunctionRecordDeleter@cpp_function@3@@std@@QEAA@XZ
    ??1?$unordered_map@PEAU_typeobject@@V?$vector@PEAUtype_info@detail@pybind11@@V?$allocator@PEAUtype_info@detail@pybind11@@@std@@@std@@U?$hash@PEAU_typeobject@@@3@U?$equal_to@PEAU_typeobject@@@3@V?$allocator@U?$pair@QEAU_typeobject@@V?$vector@PEAUtype_info@detail@pybind11@@V?$allocator@PEAUtype_info@detail@pybind11@@@std@@@std@@@std@@@3@@std@@QEAA@XZ
    ??1?$unordered_map@PEBU_object@@V?$vector@PEAU_object@@V?$allocator@PEAU_object@@@std@@@std@@U?$hash@PEBU_object@@@3@U?$equal_to@PEBU_object@@@3@V?$allocator@U?$pair@QEBU_object@@V?$vector@PEAU_object@@V?$allocator@PEAU_object@@@std@@@std@@@std@@@3@@std@@QEAA@XZ
    ??1?$unordered_map@V?$basic_string@DU?$char_traits@D@std@@V?$allocator@D@2@@std@@PEAXU?$hash@V?$basic_string@DU?$char_traits@D@std@@V?$allocator@D@2@@std@@@2@U?$equal_to@V?$basic_string@DU?$char_traits@D@std@@V?$allocator@D@2@@std@@@2@V?$allocator@U?$pair@$$CBV?$basic_string@DU?$char_traits@D@std@@V?$allocator@D@2@@std@@PEAX@std@@@2@@std@@QEAA@XZ
    ??1?$unordered_map@Vtype_index@std@@PEAUtype_info@detail@pybind11@@U?$hash@Vtype_index@std@@@2@U?$equal_to@Vtype_index@std@@@2@V?$allocator@U?$pair@$$CBVtype_index@std@@PEAUtype_info@detail@pybind11@@@std@@@2@@std@@QEAA@XZ
    ??1?$unordered_map@Vtype_index@std@@V?$vector@P6A_NPEAU_object@@AEAPEAX@ZV?$allocator@P6A_NPEAU_object@@AEAPEAX@Z@std@@@2@U?$hash@Vtype_index@std@@@2@U?$equal_to@Vtype_index@std@@@2@V?$allocator@U?$pair@$$CBVtype_index@std@@V?$vector@P6A_NPEAU_object@@AEAPEAX@ZV?$allocator@P6A_NPEAU_object@@AEAPEAX@Z@std@@@2@@std@@@2@@std@@QEAA@XZ
    ??1?$unordered_multimap@PEBXPEAUinstance@detail@pybind11@@U?$hash@PEBX@std@@U?$equal_to@PEBX@5@V?$allocator@U?$pair@QEBXPEAUinstance@detail@pybind11@@@std@@@5@@std@@QEAA@XZ
    ??1?$unordered_set@PEAU_object@@U?$hash@PEAU_object@@@std@@U?$equal_to@PEAU_object@@@3@V?$allocator@PEAU_object@@@3@@std@@QEAA@XZ
    ??1?$unordered_set@U?$pair@PEBU_object@@PEBD@std@@Uoverride_hash@detail@pybind11@@U?$equal_to@U?$pair@PEBU_object@@PEBD@std@@@2@V?$allocator@U?$pair@PEBU_object@@PEBD@std@@@2@@std@@QEAA@XZ
    ??1?$vector@IV?$allocator@I@std@@@std@@QEAA@XZ
    ??1?$vector@NV?$allocator@N@std@@@std@@QEAA@XZ
    ??1?$vector@P6APEAU_object@@PEAU1@PEAU_typeobject@@@ZV?$allocator@P6APEAU_object@@PEAU1@PEAU_typeobject@@@Z@std@@@std@@QEAA@XZ
    ??1?$vector@P6A_NPEAU_object@@AEAPEAX@ZV?$allocator@P6A_NPEAU_object@@AEAPEAX@Z@std@@@std@@QEAA@XZ
    ??1?$vector@PEADV?$allocator@PEAD@std@@@std@@QEAA@XZ
    ??1?$vector@PEAU_object@@V?$allocator@PEAU_object@@@std@@@std@@QEAA@XZ
    ??1?$vector@PEAU_typeobject@@V?$allocator@PEAU_typeobject@@@std@@@std@@QEAA@XZ
    ??1?$vector@PEAUtype_info@detail@pybind11@@V?$allocator@PEAUtype_info@detail@pybind11@@@std@@@std@@QEAA@XZ
    ??1?$vector@U?$pair@PEBVtype_info@@P6APEAXPEAX@Z@std@@V?$allocator@U?$pair@PEBVtype_info@@P6APEAXPEAX@Z@std@@@2@@std@@QEAA@XZ
    ??1?$vector@Uargument_record@detail@pybind11@@V?$allocator@Uargument_record@detail@pybind11@@@std@@@std@@QEAA@XZ
    ??1?$vector@Ufunction_call@detail@pybind11@@V?$allocator@Ufunction_call@detail@pybind11@@@std@@@std@@QEAA@XZ
    ??1?$vector@Vhandle@pybind11@@V?$allocator@Vhandle@pybind11@@@std@@@std@@QEAA@XZ
    ??1?$vector@_NV?$allocator@_N@std@@@std@@QEAA@XZ
    ??1_Bxty@?$_String_val@U?$_Simple_types@D@std@@@std@@QEAA@XZ
    ??1_Clear_guard@?$_Hash@V?$_Umap_traits@PEAU_typeobject@@V?$vector@PEAUtype_info@detail@pybind11@@V?$allocator@PEAUtype_info@detail@pybind11@@@std@@@std@@V?$_Uhash_compare@PEAU_typeobject@@U?$hash@PEAU_typeobject@@@std@@U?$equal_to@PEAU_typeobject@@@3@@3@V?$allocator@U?$pair@QEAU_typeobject@@V?$vector@PEAUtype_info@detail@pybind11@@V?$allocator@PEAUtype_info@detail@pybind11@@@std@@@std@@@std@@@3@$0A@@std@@@std@@QEAA@XZ
    ??1_Range_eraser@?$_Hash@V?$_Umap_traits@PEAU_typeobject@@V?$vector@PEAUtype_info@detail@pybind11@@V?$allocator@PEAUtype_info@detail@pybind11@@@std@@@std@@V?$_Uhash_compare@PEAU_typeobject@@U?$hash@PEAU_typeobject@@@std@@U?$equal_to@PEAU_typeobject@@@3@@3@V?$allocator@U?$pair@QEAU_typeobject@@V?$vector@PEAUtype_info@detail@pybind11@@V?$allocator@PEAUtype_info@detail@pybind11@@@std@@@std@@@std@@@3@$0A@@std@@@std@@QEAA@XZ
    ??1_Reallocation_guard@?$vector@IV?$allocator@I@std@@@std@@QEAA@XZ
    ??1_Reallocation_guard@?$vector@PEADV?$allocator@PEAD@std@@@std@@QEAA@XZ
    ??1_Reallocation_guard@?$vector@PEAU_typeobject@@V?$allocator@PEAU_typeobject@@@std@@@std@@QEAA@XZ
    ??1_Reallocation_guard@?$vector@PEAUtype_info@detail@pybind11@@V?$allocator@PEAUtype_info@detail@pybind11@@@std@@@std@@QEAA@XZ
    ??1_Reallocation_guard@?$vector@Uargument_record@detail@pybind11@@V?$allocator@Uargument_record@detail@pybind11@@@std@@@std@@QEAA@XZ
    ??1_Reallocation_guard@?$vector@Ufunction_call@detail@pybind11@@V?$allocator@Ufunction_call@detail@pybind11@@@std@@@std@@QEAA@XZ
    ??1_Reallocation_guard@?$vector@Vhandle@pybind11@@V?$allocator@Vhandle@pybind11@@@std@@@std@@QEAA@XZ
    ??1_Ref_count_base@std@@UEAA@XZ
    ??1_Simple_reallocation_guard@?$vector@IV?$allocator@I@std@@@std@@QEAA@XZ
    ??1_Simple_reallocation_guard@?$vector@Uargument_record@detail@pybind11@@V?$allocator@Uargument_record@detail@pybind11@@@std@@@std@@QEAA@XZ
    ??1_Simple_reallocation_guard@?$vector@Vhandle@pybind11@@V?$allocator@Vhandle@pybind11@@@std@@@std@@QEAA@XZ
    ??1bad_alloc@std@@UEAA@XZ
    ??1bad_array_new_length@std@@UEAA@XZ
    ??1builtin_exception@pybind11@@UEAA@XZ
    ??1capsule@pybind11@@QEAA@XZ
    ??1cast_error@pybind11@@UEAA@XZ
    ??1cpp_function@pybind11@@QEAA@XZ
    ??1dict@pybind11@@QEAA@XZ
    ??1error_already_set@pybind11@@UEAA@XZ
    ??1error_fetch_and_normalize@detail@pybind11@@QEAA@XZ
    ??1error_scope@pybind11@@QEAA@XZ
    ??1exception@std@@UEAA@XZ
    ??1exception_ptr@std@@QEAA@XZ
    ??1function@pybind11@@QEAA@XZ
    ??1function_call@detail@pybind11@@QEAA@XZ
    ??1function_record@detail@pybind11@@QEAA@XZ
    ??1gil_scoped_acquire@pybind11@@QEAA@XZ
    ??1gil_scoped_acquire_local@?1??get_internals@detail@pybind11@@YAAEAUinternals@23@XZ@QEAA@XZ
    ??1list@pybind11@@QEAA@XZ
    ??1loader_life_support@detail@pybind11@@QEAA@XZ
    ??1module_@pybind11@@QEAA@XZ
    ??1none@pybind11@@QEAA@XZ
    ??1object@pybind11@@QEAA@XZ
    ??1runtime_error@std@@UEAA@XZ
    ??1str@pybind11@@QEAA@XZ
    ??1strdup_guard@cpp_function@pybind11@@QEAA@XZ
    ??1tuple@pybind11@@QEAA@XZ
    ??1type_info@detail@pybind11@@QEAA@XZ
    ??1weakref@pybind11@@QEAA@XZ
    ??4?$_Vb_reference@U?$_Wrap_alloc@V?$allocator@I@std@@@std@@@std@@QEAAAEAV01@AEBV01@@Z
    ??4?$_Vb_reference@U?$_Wrap_alloc@V?$allocator@I@std@@@std@@@std@@QEAAAEAV01@_N@Z
    ??4?$basic_string@DU?$char_traits@D@std@@V?$allocator@D@2@@std@@QEAAAEAV01@$$QEAV01@@Z
    ??4?$basic_string@DU?$char_traits@D@std@@V?$allocator@D@2@@std@@QEAAAEAV01@QEBD@Z
    ??4?$vector@PEAU_object@@V?$allocator@PEAU_object@@@std@@@std@@QEAAAEAV01@$$QEAV01@@Z
    ??4dict@pybind11@@QEAAAEAV01@$$QEAV01@@Z
    ??4exception_ptr@std@@QEAAAEAV01@AEBV01@@Z
    ??4object@pybind11@@QEAAAEAV01@$$QEAV01@@Z
    ??4tuple@pybind11@@QEAAAEAV01@$$QEAV01@@Z
    ??8?$_Array_const_iterator@Vobject@pybind11@@$00@std@@QEBA_NAEBV01@@Z
    ??8?$_Array_const_iterator@Vobject@pybind11@@$01@std@@QEBA_NAEBV01@@Z
    ??8?$_Flist_const_iterator@V?$_Flist_val@U?$_Flist_simple_types@P6AXVexception_ptr@std@@@Z@std@@@std@@@std@@QEBA_NAEBV01@@Z
    ??8?$_List_const_iterator@V?$_List_val@U?$_List_simple_types@PEAU_object@@@std@@@std@@@std@@QEBA_NAEBV01@@Z
    ??8?$_List_const_iterator@V?$_List_val@U?$_List_simple_types@U?$pair@$$CBVtype_index@std@@PEAUtype_info@detail@pybind11@@@std@@@std@@@std@@@std@@QEBA_NAEBV01@@Z
    ??8?$_List_const_iterator@V?$_List_val@U?$_List_simple_types@U?$pair@PEBU_object@@PEBD@std@@@std@@@std@@@std@@QEBA_NAEBV01@@Z
    ??8?$_List_const_iterator@V?$_List_val@U?$_List_simple_types@U?$pair@QEAU_typeobject@@V?$vector@PEAUtype_info@detail@pybind11@@V?$allocator@PEAUtype_info@detail@pybind11@@@std@@@std@@@std@@@std@@@std@@@std@@QEBA_NAEBV01@@Z
    ??8?$_List_const_iterator@V?$_List_val@U?$_List_simple_types@U?$pair@QEBU_object@@V?$vector@PEAU_object@@V?$allocator@PEAU_object@@@std@@@std@@@std@@@std@@@std@@@std@@QEBA_NAEBV01@@Z
    ??8?$_List_const_iterator@V?$_List_val@U?$_List_simple_types@U?$pair@QEBXPEAUinstance@detail@pybind11@@@std@@@std@@@std@@@std@@QEBA_NAEBV01@@Z
    ??8?$_List_unchecked_const_iterator@V?$_List_val@U?$_List_simple_types@U?$pair@QEAU_typeobject@@V?$vector@PEAUtype_info@detail@pybind11@@V?$allocator@PEAUtype_info@detail@pybind11@@@std@@@std@@@std@@@std@@@std@@U_Iterator_base0@2@@std@@QEBA_NAEBV01@@Z
    ??8?$_List_unchecked_const_iterator@V?$_List_val@U?$_List_simple_types@U?$pair@QEBXPEAUinstance@detail@pybind11@@@std@@@std@@@std@@U_Iterator_base0@2@@std@@QEBA_NAEBV01@@Z
    ??8?$_Vb_const_iterator@U?$_Wrap_alloc@V?$allocator@I@std@@@std@@@std@@QEBA_NAEBV01@@Z
    ??8?$_Vector_const_iterator@V?$_Vector_val@U?$_Simple_types@N@std@@@std@@@std@@QEBA_NAEBV01@@Z
    ??8?$_Vector_const_iterator@V?$_Vector_val@U?$_Simple_types@PEAD@std@@@std@@@std@@QEBA_NAEBV01@@Z
    ??8?$_Vector_const_iterator@V?$_Vector_val@U?$_Simple_types@PEAU_object@@@std@@@std@@@std@@QEBA_NAEBV01@@Z
    ??8?$_Vector_const_iterator@V?$_Vector_val@U?$_Simple_types@PEAUtype_info@detail@pybind11@@@std@@@std@@@std@@QEBA_NAEBV01@@Z
    ??8?$_Vector_const_iterator@V?$_Vector_val@U?$_Simple_types@U?$pair@PEBVtype_info@@P6APEAXPEAX@Z@std@@@std@@@std@@@std@@QEBA_NAEBV01@@Z
    ??8?$_Vector_const_iterator@V?$_Vector_val@U?$_Simple_types@Uargument_record@detail@pybind11@@@std@@@std@@@std@@QEBA_NAEBV01@@Z
    ??8?$_Vector_const_iterator@V?$_Vector_val@U?$_Simple_types@Ufunction_call@detail@pybind11@@@std@@@std@@@std@@QEBA_NAEBV01@@Z
    ??8detail@pybind11@@YA_NAEBV?$generic_iterator@Vdict_readonly@iterator_policies@detail@pybind11@@@01@0@Z
    ??8detail@pybind11@@YA_NAEBV?$generic_iterator@Vsequence_fast_readonly@iterator_policies@detail@pybind11@@@01@0@Z
    ??8std@@YA_NAEBVexception_ptr@0@$$T@Z
    ??8std@@YA_NAEBVexception_ptr@0@0@Z
    ??8type_index@std@@QEBA_NAEBV01@@Z
    ??8type_info@@QEBA_NAEBV0@@Z
    ??9?$_Array_const_iterator@Vobject@pybind11@@$00@std@@QEBA_NAEBV01@@Z
    ??9?$_Array_const_iterator@Vobject@pybind11@@$01@std@@QEBA_NAEBV01@@Z
    ??9?$_Flist_const_iterator@V?$_Flist_val@U?$_Flist_simple_types@P6AXVexception_ptr@std@@@Z@std@@@std@@@std@@QEBA_NAEBV01@@Z
    ??9?$_List_const_iterator@V?$_List_val@U?$_List_simple_types@PEAU_object@@@std@@@std@@@std@@QEBA_NAEBV01@@Z
    ??9?$_List_const_iterator@V?$_List_val@U?$_List_simple_types@U?$pair@$$CBVtype_index@std@@PEAUtype_info@detail@pybind11@@@std@@@std@@@std@@@std@@QEBA_NAEBV01@@Z
    ??9?$_List_const_iterator@V?$_List_val@U?$_List_simple_types@U?$pair@PEBU_object@@PEBD@std@@@std@@@std@@@std@@QEBA_NAEBV01@@Z
    ??9?$_List_const_iterator@V?$_List_val@U?$_List_simple_types@U?$pair@QEAU_typeobject@@V?$vector@PEAUtype_info@detail@pybind11@@V?$allocator@PEAUtype_info@detail@pybind11@@@std@@@std@@@std@@@std@@@std@@@std@@QEBA_NAEBV01@@Z
    ??9?$_List_const_iterator@V?$_List_val@U?$_List_simple_types@U?$pair@QEBXPEAUinstance@detail@pybind11@@@std@@@std@@@std@@@std@@QEBA_NAEBV01@@Z
    ??9?$_List_unchecked_const_iterator@V?$_List_val@U?$_List_simple_types@U?$pair@QEAU_typeobject@@V?$vector@PEAUtype_info@detail@pybind11@@V?$allocator@PEAUtype_info@detail@pybind11@@@std@@@std@@@std@@@std@@@std@@U_Iterator_base0@2@@std@@QEBA_NAEBV01@@Z
    ??9?$_Vb_const_iterator@U?$_Wrap_alloc@V?$allocator@I@std@@@std@@@std@@QEBA_NAEBV01@@Z
    ??9?$_Vector_const_iterator@V?$_Vector_val@U?$_Simple_types@N@std@@@std@@@std@@QEBA_NAEBV01@@Z
    ??9?$_Vector_const_iterator@V?$_Vector_val@U?$_Simple_types@PEAD@std@@@std@@@std@@QEBA_NAEBV01@@Z
    ??9?$_Vector_const_iterator@V?$_Vector_val@U?$_Simple_types@PEAU_object@@@std@@@std@@@std@@QEBA_NAEBV01@@Z
    ??9?$_Vector_const_iterator@V?$_Vector_val@U?$_Simple_types@PEAUtype_info@detail@pybind11@@@std@@@std@@@std@@QEBA_NAEBV01@@Z
    ??9?$_Vector_const_iterator@V?$_Vector_val@U?$_Simple_types@U?$pair@PEBVtype_info@@P6APEAXPEAX@Z@std@@@std@@@std@@@std@@QEBA_NAEBV01@@Z
    ??9?$_Vector_const_iterator@V?$_Vector_val@U?$_Simple_types@Uargument_record@detail@pybind11@@@std@@@std@@@std@@QEBA_NAEBV01@@Z
    ??9?$_Vector_const_iterator@V?$_Vector_val@U?$_Simple_types@Ufunction_call@detail@pybind11@@@std@@@std@@@std@@QEBA_NAEBV01@@Z
    ??9detail@pybind11@@YA_NAEBV?$generic_iterator@Vdict_readonly@iterator_policies@detail@pybind11@@@01@0@Z
    ??9detail@pybind11@@YA_NAEBV?$generic_iterator@Vsequence_fast_readonly@iterator_policies@detail@pybind11@@@01@0@Z
    ??9iterator@values_and_holders@detail@pybind11@@QEBA_NAEBU0123@@Z
    ??9std@@YA_NAEBVexception_ptr@0@$$T@Z
    ??9std@@YA_NAEBVexception_ptr@0@0@Z
    ??A?$array@V?$basic_string@DU?$char_traits@D@std@@V?$allocator@D@2@@std@@$00@std@@QEAAAEAV?$basic_string@DU?$char_traits@D@std@@V?$allocator@D@2@@1@_K@Z
    ??A?$array@Vobject@pybind11@@$00@std@@QEAAAEAVobject@pybind11@@_K@Z
    ??A?$basic_string@DU?$char_traits@D@std@@V?$allocator@D@2@@std@@QEAAAEAD_K@Z
    ??A?$object_api@Vhandle@pybind11@@@detail@pybind11@@QEBA?AV?$accessor@Ugeneric_item@accessor_policies@detail@pybind11@@@12@PEBD@Z
    ??A?$vector@IV?$allocator@I@std@@@std@@QEAAAEAI_K@Z
    ??A?$vector@PEAU_typeobject@@V?$allocator@PEAU_typeobject@@@std@@@std@@QEAAAEAPEAU_typeobject@@_K@Z
    ??A?$vector@PEAUtype_info@detail@pybind11@@V?$allocator@PEAUtype_info@detail@pybind11@@@std@@@std@@QEAAAEAPEAUtype_info@detail@pybind11@@_K@Z
    ??A?$vector@PEAUtype_info@detail@pybind11@@V?$allocator@PEAUtype_info@detail@pybind11@@@std@@@std@@QEBAAEBQEAUtype_info@detail@pybind11@@_K@Z
    ??A?$vector@Uargument_record@detail@pybind11@@V?$allocator@Uargument_record@detail@pybind11@@@std@@@std@@QEAAAEAUargument_record@detail@pybind11@@_K@Z
    ??A?$vector@Uargument_record@detail@pybind11@@V?$allocator@Uargument_record@detail@pybind11@@@std@@@std@@QEBAAEBUargument_record@detail@pybind11@@_K@Z
    ??A?$vector@Vhandle@pybind11@@V?$allocator@Vhandle@pybind11@@@std@@@std@@QEAAAEAVhandle@pybind11@@_K@Z
    ??A?$vector@_NV?$allocator@_N@std@@@std@@QEAA?AV?$_Vb_reference@U?$_Wrap_alloc@V?$allocator@I@std@@@std@@@1@_K@Z
    ??Atuple@pybind11@@QEBA?AV?$accessor@Utuple_item@accessor_policies@detail@pybind11@@@detail@1@_K@Z
    ??B<lambda_1>@?0??initialize_generic@cpp_function@pybind11@@IEAAX$$QEAV?$unique_ptr@Ufunction_record@detail@pybind11@@UInitializingFunctionRecordDeleter@cpp_function@3@@std@@PEBDPEBQEBVtype_info@@_K@Z@QEBAP6A?A?<auto>@@PEAX@ZXZ
    ??B<lambda_1>@?0??initialize_with_void_ptr_destructor@capsule@pybind11@@AEAAXPEBXPEBDP6AXPEAX@Z@Z@QEBAP6A?A?<auto>@@PEAU_object@@@ZXZ
    ??B<lambda_3>@?0???$initialize@AEAP6A?BV?$tuple@V?$vector@NV?$allocator@N@std@@@std@@V12@@std@@JNNNNNNNNNJNJJNN@Z$$CBV12@JNNNNNNNNNJNJJNN$$ZUname@pybind11@@Uscope@4@Usibling@4@$$BY0GBH@DUarg@4@U74@U74@U74@U74@U74@U74@U74@U74@U74@U74@U74@U74@U74@U74@U74@@cpp_function@pybind11@@IEAAXAEAP6A?BV?$tuple@V?$vector@NV?$allocator@N@std@@@std@@V12@@std@@JNNNNNNNNNJNJJNN@ZP6A?BV34@JNNNNNNNNNJNJJNN@ZAEBUname@2@AEBUscope@2@AEBUsibling@2@AEAY0GBH@$$CBDAEBUarg@2@666666666666666@Z@QEBAP6A?AVhandle@2@AEAUfunction_call@detail@2@@ZXZ
    ??B<lambda_3>@?0???$initialize@AEAP6A?BV?$tuple@V?$vector@NV?$allocator@N@std@@@std@@V12@@std@@NNNNNNNNJNN@Z$$CBV12@NNNNNNNNJNN$$ZUname@pybind11@@Uscope@4@Usibling@4@$$BY0DKL@DUarg@4@U74@U74@U74@U74@U74@U74@U74@U74@U74@U74@@cpp_function@pybind11@@IEAAXAEAP6A?BV?$tuple@V?$vector@NV?$allocator@N@std@@@std@@V12@@std@@NNNNNNNNJNN@ZP6A?BV34@NNNNNNNNJNN@ZAEBUname@2@AEBUscope@2@AEBUsibling@2@AEAY0DKL@$$CBDAEBUarg@2@6666666666@Z@QEBAP6A?AVhandle@2@AEAUfunction_call@detail@2@@ZXZ
    ??B<lambda_3>@?0???$initialize@V<lambda_2>@?0??all_type_info_get_cache@detail@pybind11@@YA?AU?$pair@V?$_List_iterator@V?$_List_val@U?$_List_simple_types@U?$pair@QEAU_typeobject@@V?$vector@PEAUtype_info@detail@pybind11@@V?$allocator@PEAUtype_info@detail@pybind11@@@std@@@std@@@std@@@std@@@std@@@std@@_N@std@@PEAU_typeobject@@@Z@XVhandle@4@$$Z$$V@cpp_function@pybind11@@IEAAX$$QEAV<lambda_2>@?0??all_type_info_get_cache@detail@2@YA?AU?$pair@V?$_List_iterator@V?$_List_val@U?$_List_simple_types@U?$pair@QEAU_typeobject@@V?$vector@PEAUtype_info@detail@pybind11@@V?$allocator@PEAUtype_info@detail@pybind11@@@std@@@std@@@std@@@std@@@std@@@std@@_N@std@@PEAU_typeobject@@@Z@P6AXVhandle@2@@Z@Z@QEBAP6A?AV92@AEAUfunction_call@52@@ZXZ
    ??B?$_Vb_reference@U?$_Wrap_alloc@V?$allocator@I@std@@@std@@@std@@QEBA_NXZ
    ??B?$accessor@Ustr_attr@accessor_policies@detail@pybind11@@@detail@pybind11@@QEBA?AVobject@2@XZ
    ??B?$accessor@Utuple_item@accessor_policies@detail@pybind11@@@detail@pybind11@@QEBA?AVobject@2@XZ
    ??B?$pyobject_caster@Vhandle@pybind11@@@detail@pybind11@@QEHAA$$QEAVhandle@2@XZ
    ??B?$string_caster@V?$basic_string@DU?$char_traits@D@std@@V?$allocator@D@2@@std@@$0A@@detail@pybind11@@QEAAAEAV?$basic_string@DU?$char_traits@D@std@@V?$allocator@D@2@@std@@XZ
    ??B?$string_caster@V?$basic_string@DU?$char_traits@D@std@@V?$allocator@D@2@@std@@$0A@@detail@pybind11@@QEHAA$$QEAV?$basic_string@DU?$char_traits@D@std@@V?$allocator@D@2@@std@@XZ
    ??B?$type_caster@JX@detail@pybind11@@QEHAA$$QEAJXZ
    ??B?$type_caster@NX@detail@pybind11@@QEHAA$$QEANXZ
    ??Bexception_ptr@std@@QEBA_NXZ
    ??Bhandle@pybind11@@QEBA_NXZ
    ??Bstr@pybind11@@QEBA?AV?$basic_string@DU?$char_traits@D@std@@V?$allocator@D@2@@std@@XZ
    ??Bvalue_and_holder@detail@pybind11@@QEBA_NXZ
    ??C?$_List_const_iterator@V?$_List_val@U?$_List_simple_types@U?$pair@PEBU_object@@PEBD@std@@@std@@@std@@@std@@QEBAPEBU?$pair@PEBU_object@@PEBD@1@XZ
    ??C?$_List_const_iterator@V?$_List_val@U?$_List_simple_types@U?$pair@QEAU_typeobject@@V?$vector@PEAUtype_info@detail@pybind11@@V?$allocator@PEAUtype_info@detail@pybind11@@@std@@@std@@@std@@@std@@@std@@@std@@QEBAPEBU?$pair@QEAU_typeobject@@V?$vector@PEAUtype_info@detail@pybind11@@V?$allocator@PEAUtype_info@detail@pybind11@@@std@@@std@@@1@XZ
    ??C?$_List_iterator@V?$_List_val@U?$_List_simple_types@U?$pair@$$CBVtype_index@std@@PEAUtype_info@detail@pybind11@@@std@@@std@@@std@@@std@@QEBAPEAU?$pair@$$CBVtype_index@std@@PEAUtype_info@detail@pybind11@@@1@XZ
    ??C?$_List_iterator@V?$_List_val@U?$_List_simple_types@U?$pair@QEAU_typeobject@@V?$vector@PEAUtype_info@detail@pybind11@@V?$allocator@PEAUtype_info@detail@pybind11@@@std@@@std@@@std@@@std@@@std@@@std@@QEBAPEAU?$pair@QEAU_typeobject@@V?$vector@PEAUtype_info@detail@pybind11@@V?$allocator@PEAUtype_info@detail@pybind11@@@std@@@std@@@1@XZ
    ??C?$_List_iterator@V?$_List_val@U?$_List_simple_types@U?$pair@QEBU_object@@V?$vector@PEAU_object@@V?$allocator@PEAU_object@@@std@@@std@@@std@@@std@@@std@@@std@@QEBAPEAU?$pair@QEBU_object@@V?$vector@PEAU_object@@V?$allocator@PEAU_object@@@std@@@std@@@1@XZ
    ??C?$_List_iterator@V?$_List_val@U?$_List_simple_types@U?$pair@QEBXPEAUinstance@detail@pybind11@@@std@@@std@@@std@@@std@@QEBAPEAU?$pair@QEBXPEAUinstance@detail@pybind11@@@1@XZ
    ??Citerator@values_and_holders@detail@pybind11@@QEAAPEAUvalue_and_holder@23@XZ
    ??D?$_Array_const_iterator@Vobject@pybind11@@$00@std@@QEBAAEBVobject@pybind11@@XZ
    ??D?$_Array_const_iterator@Vobject@pybind11@@$01@std@@QEBAAEBVobject@pybind11@@XZ
    ??D?$_Array_iterator@Vobject@pybind11@@$00@std@@QEBAAEAVobject@pybind11@@XZ
    ??D?$_Array_iterator@Vobject@pybind11@@$01@std@@QEBAAEAVobject@pybind11@@XZ
    ??D?$_Flist_const_iterator@V?$_Flist_val@U?$_Flist_simple_types@P6AXVexception_ptr@std@@@Z@std@@@std@@@std@@QEBAAEBQ6AXVexception_ptr@1@@ZXZ
    ??D?$_Flist_iterator@V?$_Flist_val@U?$_Flist_simple_types@P6AXVexception_ptr@std@@@Z@std@@@std@@@std@@QEBAAEAP6AXVexception_ptr@1@@ZXZ
    ??D?$_List_const_iterator@V?$_List_val@U?$_List_simple_types@PEAU_object@@@std@@@std@@@std@@QEBAAEBQEAU_object@@XZ
    ??D?$_List_const_iterator@V?$_List_val@U?$_List_simple_types@U?$pair@$$CBVtype_index@std@@PEAUtype_info@detail@pybind11@@@std@@@std@@@std@@@std@@QEBAAEBU?$pair@$$CBVtype_index@std@@PEAUtype_info@detail@pybind11@@@1@XZ
    ??D?$_List_const_iterator@V?$_List_val@U?$_List_simple_types@U?$pair@PEBU_object@@PEBD@std@@@std@@@std@@@std@@QEBAAEBU?$pair@PEBU_object@@PEBD@1@XZ
    ??D?$_List_const_iterator@V?$_List_val@U?$_List_simple_types@U?$pair@QEAU_typeobject@@V?$vector@PEAUtype_info@detail@pybind11@@V?$allocator@PEAUtype_info@detail@pybind11@@@std@@@std@@@std@@@std@@@std@@@std@@QEBAAEBU?$pair@QEAU_typeobject@@V?$vector@PEAUtype_info@detail@pybind11@@V?$allocator@PEAUtype_info@detail@pybind11@@@std@@@std@@@1@XZ
    ??D?$_List_const_iterator@V?$_List_val@U?$_List_simple_types@U?$pair@QEBU_object@@V?$vector@PEAU_object@@V?$allocator@PEAU_object@@@std@@@std@@@std@@@std@@@std@@@std@@QEBAAEBU?$pair@QEBU_object@@V?$vector@PEAU_object@@V?$allocator@PEAU_object@@@std@@@std@@@1@XZ
    ??D?$_List_const_iterator@V?$_List_val@U?$_List_simple_types@U?$pair@QEBXPEAUinstance@detail@pybind11@@@std@@@std@@@std@@@std@@QEBAAEBU?$pair@QEBXPEAUinstance@detail@pybind11@@@1@XZ
    ??D?$_List_iterator@V?$_List_val@U?$_List_simple_types@U?$pair@$$CBVtype_index@std@@PEAUtype_info@detail@pybind11@@@std@@@std@@@std@@@std@@QEBAAEAU?$pair@$$CBVtype_index@std@@PEAUtype_info@detail@pybind11@@@1@XZ
    ??D?$_List_iterator@V?$_List_val@U?$_List_simple_types@U?$pair@QEAU_typeobject@@V?$vector@PEAUtype_info@detail@pybind11@@V?$allocator@PEAUtype_info@detail@pybind11@@@std@@@std@@@std@@@std@@@std@@@std@@QEBAAEAU?$pair@QEAU_typeobject@@V?$vector@PEAUtype_info@detail@pybind11@@V?$allocator@PEAUtype_info@detail@pybind11@@@std@@@std@@@1@XZ
    ??D?$_List_iterator@V?$_List_val@U?$_List_simple_types@U?$pair@QEBU_object@@V?$vector@PEAU_object@@V?$allocator@PEAU_object@@@std@@@std@@@std@@@std@@@std@@@std@@QEBAAEAU?$pair@QEBU_object@@V?$vector@PEAU_object@@V?$allocator@PEAU_object@@@std@@@std@@@1@XZ
    ??D?$_List_iterator@V?$_List_val@U?$_List_simple_types@U?$pair@QEBXPEAUinstance@detail@pybind11@@@std@@@std@@@std@@@std@@QEBAAEAU?$pair@QEBXPEAUinstance@detail@pybind11@@@1@XZ
    ??D?$_List_unchecked_const_iterator@V?$_List_val@U?$_List_simple_types@U?$pair@QEAU_typeobject@@V?$vector@PEAUtype_info@detail@pybind11@@V?$allocator@PEAUtype_info@detail@pybind11@@@std@@@std@@@std@@@std@@@std@@U_Iterator_base0@2@@std@@QEBAAEBU?$pair@QEAU_typeobject@@V?$vector@PEAUtype_info@detail@pybind11@@V?$allocator@PEAUtype_info@detail@pybind11@@@std@@@std@@@1@XZ
    ??D?$_List_unchecked_const_iterator@V?$_List_val@U?$_List_simple_types@U?$pair@QEBXPEAUinstance@detail@pybind11@@@std@@@std@@@std@@U_Iterator_base0@2@@std@@QEBAAEBU?$pair@QEBXPEAUinstance@detail@pybind11@@@1@XZ
    ??D?$_List_unchecked_iterator@V?$_List_val@U?$_List_simple_types@U?$pair@QEAU_typeobject@@V?$vector@PEAUtype_info@detail@pybind11@@V?$allocator@PEAUtype_info@detail@pybind11@@@std@@@std@@@std@@@std@@@std@@@std@@QEBAAEAU?$pair@QEAU_typeobject@@V?$vector@PEAUtype_info@detail@pybind11@@V?$allocator@PEAUtype_info@detail@pybind11@@@std@@@std@@@1@XZ
    ??D?$_Vb_iterator@U?$_Wrap_alloc@V?$allocator@I@std@@@std@@@std@@QEBA?AV?$_Vb_reference@U?$_Wrap_alloc@V?$allocator@I@std@@@std@@@1@XZ
    ??D?$_Vector_const_iterator@V?$_Vector_val@U?$_Simple_types@N@std@@@std@@@std@@QEBAAEBNXZ
    ??D?$_Vector_const_iterator@V?$_Vector_val@U?$_Simple_types@PEAD@std@@@std@@@std@@QEBAAEBQEADXZ
    ??D?$_Vector_const_iterator@V?$_Vector_val@U?$_Simple_types@PEAU_object@@@std@@@std@@@std@@QEBAAEBQEAU_object@@XZ
    ??D?$_Vector_const_iterator@V?$_Vector_val@U?$_Simple_types@PEAUtype_info@detail@pybind11@@@std@@@std@@@std@@QEBAAEBQEAUtype_info@detail@pybind11@@XZ
    ??D?$_Vector_const_iterator@V?$_Vector_val@U?$_Simple_types@U?$pair@PEBVtype_info@@P6APEAXPEAX@Z@std@@@std@@@std@@@std@@QEBAAEBU?$pair@PEBVtype_info@@P6APEAXPEAX@Z@1@XZ
    ??D?$_Vector_const_iterator@V?$_Vector_val@U?$_Simple_types@Uargument_record@detail@pybind11@@@std@@@std@@@std@@QEBAAEBUargument_record@detail@pybind11@@XZ
    ??D?$_Vector_const_iterator@V?$_Vector_val@U?$_Simple_types@Ufunction_call@detail@pybind11@@@std@@@std@@@std@@QEBAAEBUfunction_call@detail@pybind11@@XZ
    ??D?$_Vector_iterator@V?$_Vector_val@U?$_Simple_types@PEAD@std@@@std@@@std@@QEBAAEAPEADXZ
    ??D?$_Vector_iterator@V?$_Vector_val@U?$_Simple_types@PEAU_object@@@std@@@std@@@std@@QEBAAEAPEAU_object@@XZ
    ??D?$_Vector_iterator@V?$_Vector_val@U?$_Simple_types@PEAUtype_info@detail@pybind11@@@std@@@std@@@std@@QEBAAEAPEAUtype_info@detail@pybind11@@XZ
    ??D?$_Vector_iterator@V?$_Vector_val@U?$_Simple_types@U?$pair@PEBVtype_info@@P6APEAXPEAX@Z@std@@@std@@@std@@@std@@QEBAAEAU?$pair@PEBVtype_info@@P6APEAXPEAX@Z@1@XZ
    ??D?$_Vector_iterator@V?$_Vector_val@U?$_Simple_types@Uargument_record@detail@pybind11@@@std@@@std@@@std@@QEBAAEAUargument_record@detail@pybind11@@XZ
    ??D?$_Vector_iterator@V?$_Vector_val@U?$_Simple_types@Ufunction_call@detail@pybind11@@@std@@@std@@@std@@QEBAAEAUfunction_call@detail@pybind11@@XZ
    ??D?$generic_iterator@Vdict_readonly@iterator_policies@detail@pybind11@@@detail@pybind11@@QEBA?BU?$pair@Vhandle@pybind11@@V12@@std@@XZ
    ??D?$generic_iterator@Vsequence_fast_readonly@iterator_policies@detail@pybind11@@@detail@pybind11@@QEBA?BVhandle@2@XZ
    ??Diterator@values_and_holders@detail@pybind11@@QEAAAEAUvalue_and_holder@23@XZ
    ??E?$_Array_const_iterator@Vobject@pybind11@@$00@std@@QEAAAEAV01@XZ
    ??E?$_Array_const_iterator@Vobject@pybind11@@$01@std@@QEAAAEAV01@XZ
    ??E?$_Array_iterator@Vobject@pybind11@@$00@std@@QEAAAEAV01@XZ
    ??E?$_Array_iterator@Vobject@pybind11@@$01@std@@QEAAAEAV01@XZ
    ??E?$_Flist_const_iterator@V?$_Flist_val@U?$_Flist_simple_types@P6AXVexception_ptr@std@@@Z@std@@@std@@@std@@QEAAAEAV01@XZ
    ??E?$_Flist_iterator@V?$_Flist_val@U?$_Flist_simple_types@P6AXVexception_ptr@std@@@Z@std@@@std@@@std@@QEAAAEAV01@XZ
    ??E?$_List_const_iterator@V?$_List_val@U?$_List_simple_types@PEAU_object@@@std@@@std@@@std@@QEAAAEAV01@XZ
    ??E?$_List_const_iterator@V?$_List_val@U?$_List_simple_types@U?$pair@PEBU_object@@PEBD@std@@@std@@@std@@@std@@QEAAAEAV01@XZ
    ??E?$_List_const_iterator@V?$_List_val@U?$_List_simple_types@U?$pair@QEBXPEAUinstance@detail@pybind11@@@std@@@std@@@std@@@std@@QEAAAEAV01@XZ
    ??E?$_List_iterator@V?$_List_val@U?$_List_simple_types@U?$pair@QEBXPEAUinstance@detail@pybind11@@@std@@@std@@@std@@@std@@QEAAAEAV01@XZ
    ??E?$_List_unchecked_const_iterator@V?$_List_val@U?$_List_simple_types@U?$pair@QEAU_typeobject@@V?$vector@PEAUtype_info@detail@pybind11@@V?$allocator@PEAUtype_info@detail@pybind11@@@std@@@std@@@std@@@std@@@std@@U_Iterator_base0@2@@std@@QEAAAEAV01@XZ
    ??E?$_List_unchecked_const_iterator@V?$_List_val@U?$_List_simple_types@U?$pair@QEBXPEAUinstance@detail@pybind11@@@std@@@std@@@std@@U_Iterator_base0@2@@std@@QEAAAEAV01@XZ
    ??E?$_List_unchecked_iterator@V?$_List_val@U?$_List_simple_types@U?$pair@QEAU_typeobject@@V?$vector@PEAUtype_info@detail@pybind11@@V?$allocator@PEAUtype_info@detail@pybind11@@@std@@@std@@@std@@@std@@@std@@@std@@QEAAAEAV01@XZ
    ??E?$_Vector_const_iterator@V?$_Vector_val@U?$_Simple_types@N@std@@@std@@@std@@QEAAAEAV01@XZ
    ??E?$_Vector_const_iterator@V?$_Vector_val@U?$_Simple_types@PEAD@std@@@std@@@std@@QEAAAEAV01@XZ
    ??E?$_Vector_const_iterator@V?$_Vector_val@U?$_Simple_types@PEAU_object@@@std@@@std@@@std@@QEAAAEAV01@XZ
    ??E?$_Vector_const_iterator@V?$_Vector_val@U?$_Simple_types@PEAUtype_info@detail@pybind11@@@std@@@std@@@std@@QEAAAEAV01@XZ
    ??E?$_Vector_const_iterator@V?$_Vector_val@U?$_Simple_types@U?$pair@PEBVtype_info@@P6APEAXPEAX@Z@std@@@std@@@std@@@std@@QEAAAEAV01@XZ
    ??E?$_Vector_const_iterator@V?$_Vector_val@U?$_Simple_types@Uargument_record@detail@pybind11@@@std@@@std@@@std@@QEAAAEAV01@XZ
    ??E?$_Vector_const_iterator@V?$_Vector_val@U?$_Simple_types@Ufunction_call@detail@pybind11@@@std@@@std@@@std@@QEAAAEAV01@XZ
    ??E?$_Vector_iterator@V?$_Vector_val@U?$_Simple_types@PEAD@std@@@std@@@std@@QEAAAEAV01@XZ
    ??E?$_Vector_iterator@V?$_Vector_val@U?$_Simple_types@PEAU_object@@@std@@@std@@@std@@QEAAAEAV01@XZ
    ??E?$_Vector_iterator@V?$_Vector_val@U?$_Simple_types@PEAUtype_info@detail@pybind11@@@std@@@std@@@std@@QEAA?AV01@H@Z
    ??E?$_Vector_iterator@V?$_Vector_val@U?$_Simple_types@PEAUtype_info@detail@pybind11@@@std@@@std@@@std@@QEAAAEAV01@XZ
    ??E?$_Vector_iterator@V?$_Vector_val@U?$_Simple_types@U?$pair@PEBVtype_info@@P6APEAXPEAX@Z@std@@@std@@@std@@@std@@QEAAAEAV01@XZ
    ??E?$_Vector_iterator@V?$_Vector_val@U?$_Simple_types@Uargument_record@detail@pybind11@@@std@@@std@@@std@@QEAAAEAV01@XZ
    ??E?$_Vector_iterator@V?$_Vector_val@U?$_Simple_types@Ufunction_call@detail@pybind11@@@std@@@std@@@std@@QEAAAEAV01@XZ
    ??E?$generic_iterator@Vdict_readonly@iterator_policies@detail@pybind11@@@detail@pybind11@@QEAAAEAV012@XZ
    ??E?$generic_iterator@Vsequence_fast_readonly@iterator_policies@detail@pybind11@@@detail@pybind11@@QEAAAEAV012@XZ
    ??Eiterator@values_and_holders@detail@pybind11@@QEAAAEAU0123@XZ
    ??F?$_List_unchecked_const_iterator@V?$_List_val@U?$_List_simple_types@U?$pair@QEAU_typeobject@@V?$vector@PEAUtype_info@detail@pybind11@@V?$allocator@PEAUtype_info@detail@pybind11@@@std@@@std@@@std@@@std@@@std@@U_Iterator_base0@2@@std@@QEAAAEAV01@XZ
    ??F?$_Vb_const_iterator@U?$_Wrap_alloc@V?$allocator@I@std@@@std@@@std@@QEAAAEAV01@XZ
    ??F?$_Vb_iterator@U?$_Wrap_alloc@V?$allocator@I@std@@@std@@@std@@QEAAAEAV01@XZ
    ??G?$_Vb_const_iterator@U?$_Wrap_alloc@V?$allocator@I@std@@@std@@@std@@QEBA_JAEBV01@@Z
    ??H?$_Vb_iterator@U?$_Wrap_alloc@V?$allocator@I@std@@@std@@@std@@QEBA?AV01@_J@Z
    ??H?$_Vector_iterator@V?$_Vector_val@U?$_Simple_types@I@std@@@std@@@std@@QEBA?AV01@_J@Z
    ??R<lambda_1>@?0???R<lambda_2>@?0??all_type_info_get_cache@detail@pybind11@@YA?AU?$pair@V?$_List_iterator@V?$_List_val@U?$_List_simple_types@U?$pair@QEAU_typeobject@@V?$vector@PEAUtype_info@detail@pybind11@@V?$allocator@PEAUtype_info@detail@pybind11@@@std@@@std@@@std@@@std@@@std@@@std@@_N@std@@PEAU_typeobject@@@Z@QEBA?A?<auto>@@Vhandle@4@@Z@QEBA?A?8@AEAUinternals@34@@Z
    ??R<lambda_1>@?0??all_type_info_get_cache@detail@pybind11@@YA?AU?$pair@V?$_List_iterator@V?$_List_val@U?$_List_simple_types@U?$pair@QEAU_typeobject@@V?$vector@PEAUtype_info@detail@pybind11@@V?$allocator@PEAUtype_info@detail@pybind11@@@std@@@std@@@std@@@std@@@std@@@std@@_N@std@@PEAU_typeobject@@@Z@QEBA?A?<auto>@@AEAUinternals@23@@Z
    ??R<lambda_1>@?0??append@?$basic_string@DU?$char_traits@D@std@@V?$allocator@D@2@@std@@QEAAAEAV23@QEBD_K@Z@SA?A?<auto>@@QEAD0101@Z
    ??R<lambda_1>@?0??assign@?$basic_string@DU?$char_traits@D@std@@V?$allocator@D@2@@std@@QEAAAEAV23@QEBD_K@Z@SA?A?<auto>@@QEAD10@Z
    ??R<lambda_1>@?0??clear_patients@detail@pybind11@@YAXPEAU_object@@@Z@QEBA?A?<auto>@@AEAUinternals@23@@Z
    ??R<lambda_1>@?0??deregister_instance_impl@detail@pybind11@@YA_NPEAXPEAUinstance@23@@Z@QEBA?A?<auto>@@AEAV?$unordered_multimap@PEBXPEAUinstance@detail@pybind11@@U?$hash@PEBX@std@@U?$equal_to@PEBX@5@V?$allocator@U?$pair@QEBXPEAUinstance@detail@pybind11@@@std@@@5@@std@@@Z
    ??R<lambda_1>@?0??dispatcher@cpp_function@pybind11@@KAPEAU_object@@PEAU4@00@Z@QEBA?A?<auto>@@AEAUinternals@detail@3@@Z
    ??R<lambda_1>@?0??get_global_type_info@detail@pybind11@@YAPEAUtype_info@23@AEBVtype_index@std@@@Z@QEBA?A?<auto>@@AEAUinternals@23@@Z
    ??R<lambda_1>@?0??initialize_generic@cpp_function@pybind11@@IEAAX$$QEAV?$unique_ptr@Ufunction_record@detail@pybind11@@UInitializingFunctionRecordDeleter@cpp_function@3@@std@@PEBDPEBQEBVtype_info@@_K@Z@QEBA?A?<auto>@@PEAX@Z
    ??R<lambda_1>@?0??initialize_with_void_ptr_destructor@capsule@pybind11@@AEAAXPEBXPEBDP6AXPEAX@Z@Z@QEBA?A?<auto>@@PEAU_object@@@Z
    ??R<lambda_1>@?0??insert@?$basic_string@DU?$char_traits@D@std@@V?$allocator@D@2@@std@@QEAAAEAV23@_KQEBD0@Z@SA?A?<auto>@@QEAD10010@Z
    ??R<lambda_1>@?0??load@?$type_caster@JX@detail@pybind11@@QEAA_NVhandle@4@_N@Z@QEBA?A?<auto>@@PEAU_object@@@Z
    ??R<lambda_1>@?0??push_back@?$basic_string@DU?$char_traits@D@std@@V?$allocator@D@2@@std@@QEAAXD@Z@SA?A?<auto>@@QEADQEBD_KD@Z
    ??R<lambda_1>@?0??pybind11_meta_dealloc@detail@pybind11@@9@QEBA?A?<auto>@@AEAUinternals@23@@Z
    ??R<lambda_2>@?0??all_type_info_get_cache@detail@pybind11@@YA?AU?$pair@V?$_List_iterator@V?$_List_val@U?$_List_simple_types@U?$pair@QEAU_typeobject@@V?$vector@PEAUtype_info@detail@pybind11@@V?$allocator@PEAUtype_info@detail@pybind11@@@std@@@std@@@std@@@std@@@std@@@std@@_N@std@@PEAU_typeobject@@@Z@QEBA?A?<auto>@@Vhandle@3@@Z
    ??R<lambda_2>@?0??dispatcher@cpp_function@pybind11@@KAPEAU_object@@PEAU4@00@Z@QEBA?A?<auto>@@AEAV?$basic_string@DU?$char_traits@D@std@@V?$allocator@D@2@@std@@@Z
    ??R<lambda_3>@?0???$initialize@AEAP6A?BV?$tuple@V?$vector@NV?$allocator@N@std@@@std@@V12@@std@@JNNNNNNNNNJNJJNN@Z$$CBV12@JNNNNNNNNNJNJJNN$$ZUname@pybind11@@Uscope@4@Usibling@4@$$BY0GBH@DUarg@4@U74@U74@U74@U74@U74@U74@U74@U74@U74@U74@U74@U74@U74@U74@U74@@cpp_function@pybind11@@IEAAXAEAP6A?BV?$tuple@V?$vector@NV?$allocator@N@std@@@std@@V12@@std@@JNNNNNNNNNJNJJNN@ZP6A?BV34@JNNNNNNNNNJNJJNN@ZAEBUname@2@AEBUscope@2@AEBUsibling@2@AEAY0GBH@$$CBDAEBUarg@2@666666666666666@Z@QEBA@AEAUfunction_call@detail@2@@Z
    ??R<lambda_3>@?0???$initialize@AEAP6A?BV?$tuple@V?$vector@NV?$allocator@N@std@@@std@@V12@@std@@NNNNNNNNJNN@Z$$CBV12@NNNNNNNNJNN$$ZUname@pybind11@@Uscope@4@Usibling@4@$$BY0DKL@DUarg@4@U74@U74@U74@U74@U74@U74@U74@U74@U74@U74@@cpp_function@pybind11@@IEAAXAEAP6A?BV?$tuple@V?$vector@NV?$allocator@N@std@@@std@@V12@@std@@NNNNNNNNJNN@ZP6A?BV34@NNNNNNNNJNN@ZAEBUname@2@AEBUscope@2@AEBUsibling@2@AEAY0DKL@$$CBDAEBUarg@2@6666666666@Z@QEBA@AEAUfunction_call@detail@2@@Z
    ??R<lambda_3>@?0???$initialize@V<lambda_2>@?0??all_type_info_get_cache@detail@pybind11@@YA?AU?$pair@V?$_List_iterator@V?$_List_val@U?$_List_simple_types@U?$pair@QEAU_typeobject@@V?$vector@PEAUtype_info@detail@pybind11@@V?$allocator@PEAUtype_info@detail@pybind11@@@std@@@std@@@std@@@std@@@std@@@std@@_N@std@@PEAU_typeobject@@@Z@XVhandle@4@$$Z$$V@cpp_function@pybind11@@IEAAX$$QEAV<lambda_2>@?0??all_type_info_get_cache@detail@2@YA?AU?$pair@V?$_List_iterator@V?$_List_val@U?$_List_simple_types@U?$pair@QEAU_typeobject@@V?$vector@PEAUtype_info@detail@pybind11@@V?$allocator@PEAUtype_info@detail@pybind11@@@std@@@std@@@std@@@std@@@std@@@std@@_N@std@@PEAU_typeobject@@@Z@P6AXVhandle@2@@Z@Z@QEBA@AEAUfunction_call@52@@Z
    ??R?$_Conditionally_enabled_hash@PEAU_typeobject@@$00@std@@SA_KAEBQEAU_typeobject@@@Z
    ??R?$_Conditionally_enabled_hash@PEBU_object@@$00@std@@SA_KAEBQEBU_object@@@Z
    ??R?$_Conditionally_enabled_hash@PEBX$00@std@@SA_KAEBQEBX@Z
    ??R?$equal_to@PEAU_typeobject@@@std@@QEBA_NAEBQEAU_typeobject@@0@Z
    ??R?$equal_to@PEBU_object@@@std@@QEBA_NAEBQEBU_object@@0@Z
    ??R?$equal_to@PEBX@std@@QEBA_NAEBQEBX0@Z
    ??R?$equal_to@Vtype_index@std@@@std@@QEBA_NAEBVtype_index@1@0@Z
    ??R?$hash@Vtype_index@std@@@std@@SA_KAEBVtype_index@1@@Z
    ??RInitializingFunctionRecordDeleter@cpp_function@pybind11@@QEAAXPEAUfunction_record@detail@2@@Z
    ??Roverride_hash@detail@pybind11@@QEBA_KAEBU?$pair@PEBU_object@@PEBD@std@@@Z
    ??Rstrdup_guard@cpp_function@pybind11@@QEAAPEADPEBD@Z
    ??Y?$_Vb_const_iterator@U?$_Wrap_alloc@V?$allocator@I@std@@@std@@@std@@QEAAAEAV01@_J@Z
    ??Y?$_Vb_iterator@U?$_Wrap_alloc@V?$allocator@I@std@@@std@@@std@@QEAAAEAV01@_J@Z
    ??Y?$_Vector_const_iterator@V?$_Vector_val@U?$_Simple_types@I@std@@@std@@@std@@QEAAAEAV01@_J@Z
    ??Y?$_Vector_iterator@V?$_Vector_val@U?$_Simple_types@I@std@@@std@@@std@@QEAAAEAV01@_J@Z
    ??Y?$basic_string@DU?$char_traits@D@std@@V?$allocator@D@2@@std@@QEAAAEAV01@AEBV01@@Z
    ??Y?$basic_string@DU?$char_traits@D@std@@V?$allocator@D@2@@std@@QEAAAEAV01@D@Z
    ??Y?$basic_string@DU?$char_traits@D@std@@V?$allocator@D@2@@std@@QEAAAEAV01@QEBD@Z
    ??_G?$_Ref_count_resource@PEAUerror_fetch_and_normalize@detail@pybind11@@P6AXPEAU123@@Z@std@@UEAAPEAXI@Z
    ??_Gbad_alloc@std@@UEAAPEAXI@Z
    ??_Gbad_array_new_length@std@@UEAAPEAXI@Z
    ??_Gbuiltin_exception@pybind11@@UEAAPEAXI@Z
    ??_Gcast_error@pybind11@@UEAAPEAXI@Z
    ??_Gerror_already_set@pybind11@@UEAAPEAXI@Z
    ??_Gexception@std@@UEAAPEAXI@Z
    ??_Gruntime_error@std@@UEAAPEAXI@Z
    ??_R0?AV?$_Ref_count_resource@PEAUerror_fetch_and_normalize@detail@pybind11@@P6AXPEAU123@@Z@std@@@8
    ??_R0?AV?$basic_string@DU?$char_traits@D@std@@V?$allocator@D@2@@std@@@8
    ??_R0?AV_Ref_count_base@std@@@8
    ??_R0?AVbad_alloc@std@@@8
    ??_R0?AVbad_array_new_length@std@@@8
    ??_R0?AVbuiltin_exception@pybind11@@@8
    ??_R0?AVcast_error@pybind11@@@8
    ??_R0?AVdomain_error@std@@@8
    ??_R0?AVerror_already_set@pybind11@@@8
    ??_R0?AVexception@std@@@8
    ??_R0?AVhandle@pybind11@@@8
    ??_R0?AVinvalid_argument@std@@@8
    ??_R0?AVlength_error@std@@@8
    ??_R0?AVnested_exception@std@@@8
    ??_R0?AVout_of_range@std@@@8
    ??_R0?AVoverflow_error@std@@@8
    ??_R0?AVrange_error@std@@@8
    ??_R0?AVreference_cast_error@pybind11@@@8
    ??_R0?AVruntime_error@std@@@8
    ??_R0P6A?BV?$tuple@V?$vector@NV?$allocator@N@std@@@std@@V12@@std@@JNNNNNNNNNJNJJNN@Z@8
    ??_R0P6A?BV?$tuple@V?$vector@NV?$allocator@N@std@@@std@@V12@@std@@NNNNNNNNJNN@Z@8
    ??_R0P6AXPEAUerror_fetch_and_normalize@detail@pybind11@@@Z@8
    ?_Activate_SSO_buffer@?$_String_val@U?$_Simple_types@D@std@@@std@@QEAAXXZ
    ?_Adjust_manually_vector_aligned@std@@YAXAEAPEAXAEA_K@Z
    ?_Adopt@_Iterator_base0@std@@QEAAXPEBX@Z
    ?_Advance@?$_Vb_iter_base@U?$_Wrap_alloc@V?$allocator@I@std@@@std@@@std@@QEAAX_K@Z
    ?_Alloc_proxy@?$forward_list@P6AXVexception_ptr@std@@@ZV?$allocator@P6AXVexception_ptr@std@@@Z@2@@std@@AEAAXXZ
    ?_Alloc_proxy@?$forward_list@V?$basic_string@DU?$char_traits@D@std@@V?$allocator@D@2@@std@@V?$allocator@V?$basic_string@DU?$char_traits@D@std@@V?$allocator@D@2@@std@@@2@@std@@AEAAXXZ
    ?_Alloc_proxy@_Container_base0@std@@QEAAXAEBU_Fake_allocator@2@@Z
    ?_Alloc_sentinel_and_proxy@?$list@PEAU_object@@V?$allocator@PEAU_object@@@std@@@std@@AEAAXXZ
    ?_Alloc_sentinel_and_proxy@?$list@U?$pair@$$CBV?$basic_string@DU?$char_traits@D@std@@V?$allocator@D@2@@std@@PEAX@std@@V?$allocator@U?$pair@$$CBV?$basic_string@DU?$char_traits@D@std@@V?$allocator@D@2@@std@@PEAX@std@@@2@@std@@AEAAXXZ
    ?_Alloc_sentinel_and_proxy@?$list@U?$pair@$$CBVtype_index@std@@PEAUtype_info@detail@pybind11@@@std@@V?$allocator@U?$pair@$$CBVtype_index@std@@PEAUtype_info@detail@pybind11@@@std@@@2@@std@@AEAAXXZ
    ?_Alloc_sentinel_and_proxy@?$list@U?$pair@$$CBVtype_index@std@@V?$vector@P6A_NPEAU_object@@AEAPEAX@ZV?$allocator@P6A_NPEAU_object@@AEAPEAX@Z@std@@@2@@std@@V?$allocator@U?$pair@$$CBVtype_index@std@@V?$vector@P6A_NPEAU_object@@AEAPEAX@ZV?$allocator@P6A_NPEAU_object@@AEAPEAX@Z@std@@@2@@std@@@2@@std@@AEAAXXZ
    ?_Alloc_sentinel_and_proxy@?$list@U?$pair@PEBU_object@@PEBD@std@@V?$allocator@U?$pair@PEBU_object@@PEBD@std@@@2@@std@@AEAAXXZ
    ?_Alloc_sentinel_and_proxy@?$list@U?$pair@QEAU_typeobject@@V?$vector@PEAUtype_info@detail@pybind11@@V?$allocator@PEAUtype_info@detail@pybind11@@@std@@@std@@@std@@V?$allocator@U?$pair@QEAU_typeobject@@V?$vector@PEAUtype_info@detail@pybind11@@V?$allocator@PEAUtype_info@detail@pybind11@@@std@@@std@@@std@@@2@@std@@AEAAXXZ
    ?_Alloc_sentinel_and_proxy@?$list@U?$pair@QEBU_object@@V?$vector@PEAU_object@@V?$allocator@PEAU_object@@@std@@@std@@@std@@V?$allocator@U?$pair@QEBU_object@@V?$vector@PEAU_object@@V?$allocator@PEAU_object@@@std@@@std@@@std@@@2@@std@@AEAAXXZ
    ?_Alloc_sentinel_and_proxy@?$list@U?$pair@QEBXPEAUinstance@detail@pybind11@@@std@@V?$allocator@U?$pair@QEBXPEAUinstance@detail@pybind11@@@std@@@2@@std@@AEAAXXZ
    ?_Allocate@?$_Alloc_construct_ptr@V?$allocator@U?$_Flist_node@P6AXVexception_ptr@std@@@ZPEAX@std@@@std@@@std@@QEAAXXZ
    ?_Allocate@?$_Alloc_construct_ptr@V?$allocator@U?$_List_node@U?$pair@QEAU_typeobject@@V?$vector@PEAUtype_info@detail@pybind11@@V?$allocator@PEAUtype_info@detail@pybind11@@@std@@@std@@@std@@PEAX@std@@@std@@@std@@QEAAXXZ
    ?_Allocate@_Default_allocate_traits@std@@SAPEAX_K@Z
    ?_Assign_grow@?$_Hash_vec@V?$allocator@V?$_List_unchecked_const_iterator@V?$_List_val@U?$_List_simple_types@PEAU_object@@@std@@@std@@U_Iterator_base0@2@@std@@@std@@@std@@QEAAX_KV?$_List_unchecked_const_iterator@V?$_List_val@U?$_List_simple_types@PEAU_object@@@std@@@std@@U_Iterator_base0@2@@2@@Z
    ?_Assign_grow@?$_Hash_vec@V?$allocator@V?$_List_unchecked_const_iterator@V?$_List_val@U?$_List_simple_types@U?$pair@PEBU_object@@PEBD@std@@@std@@@std@@U_Iterator_base0@2@@std@@@std@@@std@@QEAAX_KV?$_List_unchecked_const_iterator@V?$_List_val@U?$_List_simple_types@U?$pair@PEBU_object@@PEBD@std@@@std@@@std@@U_Iterator_base0@2@@2@@Z
    ?_Assign_grow@?$_Hash_vec@V?$allocator@V?$_List_unchecked_iterator@V?$_List_val@U?$_List_simple_types@U?$pair@$$CBV?$basic_string@DU?$char_traits@D@std@@V?$allocator@D@2@@std@@PEAX@std@@@std@@@std@@@std@@@std@@@std@@QEAAX_KV?$_List_unchecked_iterator@V?$_List_val@U?$_List_simple_types@U?$pair@$$CBV?$basic_string@DU?$char_traits@D@std@@V?$allocator@D@2@@std@@PEAX@std@@@std@@@std@@@2@@Z
    ?_Assign_grow@?$_Hash_vec@V?$allocator@V?$_List_unchecked_iterator@V?$_List_val@U?$_List_simple_types@U?$pair@$$CBVtype_index@std@@PEAUtype_info@detail@pybind11@@@std@@@std@@@std@@@std@@@std@@@std@@QEAAX_KV?$_List_unchecked_iterator@V?$_List_val@U?$_List_simple_types@U?$pair@$$CBVtype_index@std@@PEAUtype_info@detail@pybind11@@@std@@@std@@@std@@@2@@Z
    ?_Assign_grow@?$_Hash_vec@V?$allocator@V?$_List_unchecked_iterator@V?$_List_val@U?$_List_simple_types@U?$pair@$$CBVtype_index@std@@V?$vector@P6A_NPEAU_object@@AEAPEAX@ZV?$allocator@P6A_NPEAU_object@@AEAPEAX@Z@std@@@2@@std@@@std@@@std@@@std@@@std@@@std@@QEAAX_KV?$_List_unchecked_iterator@V?$_List_val@U?$_List_simple_types@U?$pair@$$CBVtype_index@std@@V?$vector@P6A_NPEAU_object@@AEAPEAX@ZV?$allocator@P6A_NPEAU_object@@AEAPEAX@Z@std@@@2@@std@@@std@@@std@@@2@@Z
    ?_Assign_grow@?$_Hash_vec@V?$allocator@V?$_List_unchecked_iterator@V?$_List_val@U?$_List_simple_types@U?$pair@QEAU_typeobject@@V?$vector@PEAUtype_info@detail@pybind11@@V?$allocator@PEAUtype_info@detail@pybind11@@@std@@@std@@@std@@@std@@@std@@@std@@@std@@@std@@QEAAX_KV?$_List_unchecked_iterator@V?$_List_val@U?$_List_simple_types@U?$pair@QEAU_typeobject@@V?$vector@PEAUtype_info@detail@pybind11@@V?$allocator@PEAUtype_info@detail@pybind11@@@std@@@std@@@std@@@std@@@std@@@2@@Z
    ?_Assign_grow@?$_Hash_vec@V?$allocator@V?$_List_unchecked_iterator@V?$_List_val@U?$_List_simple_types@U?$pair@QEBU_object@@V?$vector@PEAU_object@@V?$allocator@PEAU_object@@@std@@@std@@@std@@@std@@@std@@@std@@@std@@@std@@QEAAX_KV?$_List_unchecked_iterator@V?$_List_val@U?$_List_simple_types@U?$pair@QEBU_object@@V?$vector@PEAU_object@@V?$allocator@PEAU_object@@@std@@@std@@@std@@@std@@@std@@@2@@Z
    ?_Assign_grow@?$_Hash_vec@V?$allocator@V?$_List_unchecked_iterator@V?$_List_val@U?$_List_simple_types@U?$pair@QEBXPEAUinstance@detail@pybind11@@@std@@@std@@@std@@@std@@@std@@@std@@QEAAX_KV?$_List_unchecked_iterator@V?$_List_val@U?$_List_simple_types@U?$pair@QEBXPEAUinstance@detail@pybind11@@@std@@@std@@@std@@@2@@Z
    ?_Before_head@?$_Flist_val@U?$_Flist_simple_types@P6AXVexception_ptr@std@@@Z@std@@@std@@QEBAPEAU?$_Flist_node@P6AXVexception_ptr@std@@@ZPEAX@2@XZ
    ?_Bump_erased@_Range_eraser@?$_Hash@V?$_Umap_traits@PEAU_typeobject@@V?$vector@PEAUtype_info@detail@pybind11@@V?$allocator@PEAUtype_info@detail@pybind11@@@std@@@std@@V?$_Uhash_compare@PEAU_typeobject@@U?$hash@PEAU_typeobject@@@std@@U?$equal_to@PEAU_typeobject@@@3@@3@V?$allocator@U?$pair@QEAU_typeobject@@V?$vector@PEAUtype_info@detail@pybind11@@V?$allocator@PEAUtype_info@detail@pybind11@@@std@@@std@@@std@@@3@$0A@@std@@@std@@QEAAXXZ
    ?_Buy_nonzero@?$vector@NV?$allocator@N@std@@@std@@AEAAX_K@Z
    ?_Buy_raw@?$vector@NV?$allocator@N@std@@@std@@AEAAX_K@Z
    ?_Calculate_growth@?$basic_string@DU?$char_traits@D@std@@V?$allocator@D@2@@std@@AEBA_K_K@Z
    ?_Calculate_growth@?$basic_string@DU?$char_traits@D@std@@V?$allocator@D@2@@std@@CA_K_K00@Z
    ?_Calculate_growth@?$vector@IV?$allocator@I@std@@@std@@AEBA_K_K@Z
    ?_Calculate_growth@?$vector@PEADV?$allocator@PEAD@std@@@std@@AEBA_K_K@Z
    ?_Calculate_growth@?$vector@PEAU_typeobject@@V?$allocator@PEAU_typeobject@@@std@@@std@@AEBA_K_K@Z
    ?_Calculate_growth@?$vector@PEAUtype_info@detail@pybind11@@V?$allocator@PEAUtype_info@detail@pybind11@@@std@@@std@@AEBA_K_K@Z
    ?_Calculate_growth@?$vector@Uargument_record@detail@pybind11@@V?$allocator@Uargument_record@detail@pybind11@@@std@@@std@@AEBA_K_K@Z
    ?_Calculate_growth@?$vector@Ufunction_call@detail@pybind11@@V?$allocator@Ufunction_call@detail@pybind11@@@std@@@std@@AEBA_K_K@Z
    ?_Calculate_growth@?$vector@Vhandle@pybind11@@V?$allocator@Vhandle@pybind11@@@std@@@std@@AEBA_K_K@Z
    ?_Ceiling_of_log_2@std@@YAK_K@Z
    ?_Change_array@?$vector@IV?$allocator@I@std@@@std@@AEAAXQEAI_K1@Z
    ?_Change_array@?$vector@PEADV?$allocator@PEAD@std@@@std@@AEAAXQEAPEAD_K1@Z
    ?_Change_array@?$vector@PEAU_typeobject@@V?$allocator@PEAU_typeobject@@@std@@@std@@AEAAXQEAPEAU_typeobject@@_K1@Z
    ?_Change_array@?$vector@PEAUtype_info@detail@pybind11@@V?$allocator@PEAUtype_info@detail@pybind11@@@std@@@std@@AEAAXQEAPEAUtype_info@detail@pybind11@@_K1@Z
    ?_Change_array@?$vector@Uargument_record@detail@pybind11@@V?$allocator@Uargument_record@detail@pybind11@@@std@@@std@@AEAAXQEAUargument_record@detail@pybind11@@_K1@Z
    ?_Change_array@?$vector@Ufunction_call@detail@pybind11@@V?$allocator@Ufunction_call@detail@pybind11@@@std@@@std@@AEAAXQEAUfunction_call@detail@pybind11@@_K1@Z
    ?_Change_array@?$vector@Vhandle@pybind11@@V?$allocator@Vhandle@pybind11@@@std@@@std@@AEAAXQEAVhandle@pybind11@@_K1@Z
    ?_Check_max_size@?$_Hash@V?$_Umap_traits@PEAU_typeobject@@V?$vector@PEAUtype_info@detail@pybind11@@V?$allocator@PEAUtype_info@detail@pybind11@@@std@@@std@@V?$_Uhash_compare@PEAU_typeobject@@U?$hash@PEAU_typeobject@@@std@@U?$equal_to@PEAU_typeobject@@@3@@3@V?$allocator@U?$pair@QEAU_typeobject@@V?$vector@PEAUtype_info@detail@pybind11@@V?$allocator@PEAUtype_info@detail@pybind11@@@std@@@std@@@std@@@3@$0A@@std@@@std@@IEBAXXZ
    ?_Check_offset@?$_String_val@U?$_Simple_types@D@std@@@std@@QEBAX_K@Z
    ?_Check_rehash_required_1@?$_Hash@V?$_Umap_traits@PEAU_typeobject@@V?$vector@PEAUtype_info@detail@pybind11@@V?$allocator@PEAUtype_info@detail@pybind11@@@std@@@std@@V?$_Uhash_compare@PEAU_typeobject@@U?$hash@PEAU_typeobject@@@std@@U?$equal_to@PEAU_typeobject@@@3@@3@V?$allocator@U?$pair@QEAU_typeobject@@V?$vector@PEAUtype_info@detail@pybind11@@V?$allocator@PEAUtype_info@detail@pybind11@@@std@@@std@@@std@@@3@$0A@@std@@@std@@IEBA_NXZ
    ?_Clamp_suffix_size@?$_String_val@U?$_Simple_types@D@std@@@std@@QEBA_K_K0@Z
    ?_Compat@?$_Vb_const_iterator@U?$_Wrap_alloc@V?$allocator@I@std@@@std@@@std@@QEBAXAEBV12@@Z
    ?_Compat@?$_Vector_const_iterator@V?$_Vector_val@U?$_Simple_types@N@std@@@std@@@std@@QEBAXAEBV12@@Z
    ?_Compat@?$_Vector_const_iterator@V?$_Vector_val@U?$_Simple_types@PEAD@std@@@std@@@std@@QEBAXAEBV12@@Z
    ?_Compat@?$_Vector_const_iterator@V?$_Vector_val@U?$_Simple_types@PEAU_object@@@std@@@std@@@std@@QEBAXAEBV12@@Z
    ?_Compat@?$_Vector_const_iterator@V?$_Vector_val@U?$_Simple_types@PEAUtype_info@detail@pybind11@@@std@@@std@@@std@@QEBAXAEBV12@@Z
    ?_Compat@?$_Vector_const_iterator@V?$_Vector_val@U?$_Simple_types@U?$pair@PEBVtype_info@@P6APEAXPEAX@Z@std@@@std@@@std@@@std@@QEBAXAEBV12@@Z
    ?_Compat@?$_Vector_const_iterator@V?$_Vector_val@U?$_Simple_types@Uargument_record@detail@pybind11@@@std@@@std@@@std@@QEBAXAEBV12@@Z
    ?_Compat@?$_Vector_const_iterator@V?$_Vector_val@U?$_Simple_types@Ufunction_call@detail@pybind11@@@std@@@std@@@std@@QEBAXAEBV12@@Z
    ?_Construct_empty@?$basic_string@DU?$char_traits@D@std@@V?$allocator@D@2@@std@@AEAAXXZ
    ?_Deallocate_for_capacity@?$basic_string@DU?$char_traits@D@std@@V?$allocator@D@2@@std@@CAXAEAV?$allocator@D@2@QEAD_K@Z
    ?_Dec@?$_Vb_const_iterator@U?$_Wrap_alloc@V?$allocator@I@std@@@std@@@std@@QEAAXXZ
    ?_Decref@?$_Ptr_base@Uerror_fetch_and_normalize@detail@pybind11@@@std@@IEAAXXZ
    ?_Decref@_Ref_count_base@std@@QEAAXXZ
    ?_Decwref@_Ref_count_base@std@@QEAAXXZ
    ?_Delete_this@?$_Ref_count_resource@PEAUerror_fetch_and_normalize@detail@pybind11@@P6AXPEAU123@@Z@std@@EEAAXXZ
    ?_Desired_grow_bucket_count@?$_Hash@V?$_Umap_traits@PEAU_typeobject@@V?$vector@PEAUtype_info@detail@pybind11@@V?$allocator@PEAUtype_info@detail@pybind11@@@std@@@std@@V?$_Uhash_compare@PEAU_typeobject@@U?$hash@PEAU_typeobject@@@std@@U?$equal_to@PEAU_typeobject@@@3@@3@V?$allocator@U?$pair@QEAU_typeobject@@V?$vector@PEAUtype_info@detail@pybind11@@V?$allocator@PEAUtype_info@detail@pybind11@@@std@@@std@@@std@@@3@$0A@@std@@@std@@IEBA_K_K@Z
    ?_Destroy@?$_Ref_count_resource@PEAUerror_fetch_and_normalize@detail@pybind11@@P6AXPEAU123@@Z@std@@EEAAXXZ
    ?_Do_hash@?$hash@PEAU_typeobject@@@std@@SA_KAEBQEAU_typeobject@@@Z
    ?_Do_hash@?$hash@PEBU_object@@@std@@SA_KAEBQEBU_object@@@Z
    ?_Do_hash@?$hash@PEBX@std@@SA_KAEBQEBX@Z
    ?_Eos@?$basic_string@DU?$char_traits@D@std@@V?$allocator@D@2@@std@@AEAAX_K@Z
    ?_Erase_bucket@?$_Hash@V?$_Umap_traits@PEAU_typeobject@@V?$vector@PEAUtype_info@detail@pybind11@@V?$allocator@PEAUtype_info@detail@pybind11@@@std@@@std@@V?$_Uhash_compare@PEAU_typeobject@@U?$hash@PEAU_typeobject@@@std@@U?$equal_to@PEAU_typeobject@@@3@@3@V?$allocator@U?$pair@QEAU_typeobject@@V?$vector@PEAUtype_info@detail@pybind11@@V?$allocator@PEAUtype_info@detail@pybind11@@@std@@@std@@@std@@@3@$0A@@std@@@std@@IEAAXPEAU?$_List_node@U?$pair@QEAU_typeobject@@V?$vector@PEAUtype_info@detail@pybind11@@V?$allocator@PEAUtype_info@detail@pybind11@@@std@@@std@@@std@@PEAX@2@_K@Z
    ?_Erase_bucket@?$_Hash@V?$_Umap_traits@PEBU_object@@V?$vector@PEAU_object@@V?$allocator@PEAU_object@@@std@@@std@@V?$_Uhash_compare@PEBU_object@@U?$hash@PEBU_object@@@std@@U?$equal_to@PEBU_object@@@3@@3@V?$allocator@U?$pair@QEBU_object@@V?$vector@PEAU_object@@V?$allocator@PEAU_object@@@std@@@std@@@std@@@3@$0A@@std@@@std@@IEAAXPEAU?$_List_node@U?$pair@QEBU_object@@V?$vector@PEAU_object@@V?$allocator@PEAU_object@@@std@@@std@@@std@@PEAX@2@_K@Z
    ?_Erase_bucket@?$_Hash@V?$_Umap_traits@PEBXPEAUinstance@detail@pybind11@@V?$_Uhash_compare@PEBXU?$hash@PEBX@std@@U?$equal_to@PEBX@2@@std@@V?$allocator@U?$pair@QEBXPEAUinstance@detail@pybind11@@@std@@@5@$00@std@@@std@@IEAAXPEAU?$_List_node@U?$pair@QEBXPEAUinstance@detail@pybind11@@@std@@PEAX@2@_K@Z
    ?_Erase_bucket@?$_Hash@V?$_Umap_traits@Vtype_index@std@@PEAUtype_info@detail@pybind11@@V?$_Uhash_compare@Vtype_index@std@@U?$hash@Vtype_index@std@@@2@U?$equal_to@Vtype_index@std@@@2@@2@V?$allocator@U?$pair@$$CBVtype_index@std@@PEAUtype_info@detail@pybind11@@@std@@@2@$0A@@std@@@std@@IEAAXPEAU?$_List_node@U?$pair@$$CBVtype_index@std@@PEAUtype_info@detail@pybind11@@@std@@PEAX@2@_K@Z
    ?_Erase_bucket@?$_Hash@V?$_Umap_traits@Vtype_index@std@@V?$vector@P6A_NPEAU_object@@AEAPEAX@ZV?$allocator@P6A_NPEAU_object@@AEAPEAX@Z@std@@@2@V?$_Uhash_compare@Vtype_index@std@@U?$hash@Vtype_index@std@@@2@U?$equal_to@Vtype_index@std@@@2@@2@V?$allocator@U?$pair@$$CBVtype_index@std@@V?$vector@P6A_NPEAU_object@@AEAPEAX@ZV?$allocator@P6A_NPEAU_object@@AEAPEAX@Z@std@@@2@@std@@@2@$0A@@std@@@std@@IEAAXPEAU?$_List_node@U?$pair@$$CBVtype_index@std@@V?$vector@P6A_NPEAU_object@@AEAPEAX@ZV?$allocator@P6A_NPEAU_object@@AEAPEAX@Z@std@@@2@@std@@PEAX@2@_K@Z
    ?_Erase_bucket@?$_Hash@V?$_Uset_traits@U?$pair@PEBU_object@@PEBD@std@@V?$_Uhash_compare@U?$pair@PEBU_object@@PEBD@std@@Uoverride_hash@detail@pybind11@@U?$equal_to@U?$pair@PEBU_object@@PEBD@std@@@2@@2@V?$allocator@U?$pair@PEBU_object@@PEBD@std@@@2@$0A@@std@@@std@@IEAAXPEAU?$_List_node@U?$pair@PEBU_object@@PEBD@std@@PEAX@2@_K@Z
    ?_Erase_noexcept@?$basic_string@DU?$char_traits@D@std@@V?$allocator@D@2@@std@@AEAAAEAV12@_K_K@Z
    ?_Floor_of_log_2@std@@YAK_K@Z
    ?_Fnv1a_append_bytes@std@@YA_K_KQEBE_K@Z
    ?_Forced_rehash@?$_Hash@V?$_Umap_traits@PEAU_typeobject@@V?$vector@PEAUtype_info@detail@pybind11@@V?$allocator@PEAUtype_info@detail@pybind11@@@std@@@std@@V?$_Uhash_compare@PEAU_typeobject@@U?$hash@PEAU_typeobject@@@std@@U?$equal_to@PEAU_typeobject@@@3@@3@V?$allocator@U?$pair@QEAU_typeobject@@V?$vector@PEAUtype_info@detail@pybind11@@V?$allocator@PEAUtype_info@detail@pybind11@@@std@@@std@@@std@@@3@$0A@@std@@@std@@IEAAX_K@Z
    ?_Get_deleter@?$_Ref_count_resource@PEAUerror_fetch_and_normalize@detail@pybind11@@P6AXPEAU123@@Z@std@@UEBAPEAXAEBVtype_info@@@Z
    ?_Get_first@?$_Compressed_pair@P6AXPEAUerror_fetch_and_normalize@detail@pybind11@@@ZPEAU123@$0A@@std@@QEAAAEAP6AXPEAUerror_fetch_and_normalize@detail@pybind11@@@ZXZ
    ?_Get_first@?$_Compressed_pair@P6AXPEAUerror_fetch_and_normalize@detail@pybind11@@@ZPEAU123@$0A@@std@@QEBAAEBQ6AXPEAUerror_fetch_and_normalize@detail@pybind11@@@ZXZ
    ?_Get_first@?$_Compressed_pair@U?$equal_to@PEAU_typeobject@@@std@@M$00@std@@QEBAAEBU?$equal_to@PEAU_typeobject@@@2@XZ
    ?_Get_first@?$_Compressed_pair@U?$equal_to@PEBU_object@@@std@@M$00@std@@QEBAAEBU?$equal_to@PEBU_object@@@2@XZ
    ?_Get_first@?$_Compressed_pair@U?$equal_to@PEBX@std@@M$00@std@@QEBAAEBU?$equal_to@PEBX@2@XZ
    ?_Get_first@?$_Compressed_pair@U?$equal_to@Vtype_index@std@@@std@@M$00@std@@QEBAAEBU?$equal_to@Vtype_index@std@@@2@XZ
    ?_Get_first@?$_Compressed_pair@U?$hash@PEAU_typeobject@@@std@@V?$_Compressed_pair@U?$equal_to@PEAU_typeobject@@@std@@M$00@2@$00@std@@QEBAAEBU?$hash@PEAU_typeobject@@@2@XZ
    ?_Get_first@?$_Compressed_pair@U?$hash@PEBU_object@@@std@@V?$_Compressed_pair@U?$equal_to@PEBU_object@@@std@@M$00@2@$00@std@@QEBAAEBU?$hash@PEBU_object@@@2@XZ
    ?_Get_first@?$_Compressed_pair@U?$hash@PEBX@std@@V?$_Compressed_pair@U?$equal_to@PEBX@std@@M$00@2@$00@std@@QEBAAEBU?$hash@PEBX@2@XZ
    ?_Get_first@?$_Compressed_pair@U?$hash@Vtype_index@std@@@std@@V?$_Compressed_pair@U?$equal_to@Vtype_index@std@@@std@@M$00@2@$00@std@@QEBAAEBU?$hash@Vtype_index@std@@@2@XZ
    ?_Get_first@?$_Compressed_pair@UInitializingFunctionRecordDeleter@cpp_function@pybind11@@PEAUfunction_record@detail@3@$00@std@@QEAAAEAUInitializingFunctionRecordDeleter@cpp_function@pybind11@@XZ
    ?_Get_first@?$_Compressed_pair@Uoverride_hash@detail@pybind11@@V?$_Compressed_pair@U?$equal_to@U?$pair@PEBU_object@@PEBD@std@@@std@@M$00@std@@$00@std@@QEBAAEBUoverride_hash@detail@pybind11@@XZ
    ?_Get_first@?$_Compressed_pair@V?$allocator@D@std@@V?$_String_val@U?$_Simple_types@D@std@@@2@$00@std@@QEAAAEAV?$allocator@D@2@XZ
    ?_Get_first@?$_Compressed_pair@V?$allocator@D@std@@V?$_String_val@U?$_Simple_types@D@std@@@2@$00@std@@QEBAAEBV?$allocator@D@2@XZ
    ?_Get_first@?$_Compressed_pair@V?$allocator@I@std@@V?$_Vector_val@U?$_Simple_types@I@std@@@2@$00@std@@QEAAAEAV?$allocator@I@2@XZ
    ?_Get_first@?$_Compressed_pair@V?$allocator@I@std@@V?$_Vector_val@U?$_Simple_types@I@std@@@2@$00@std@@QEBAAEBV?$allocator@I@2@XZ
    ?_Get_first@?$_Compressed_pair@V?$allocator@N@std@@V?$_Vector_val@U?$_Simple_types@N@std@@@2@$00@std@@QEAAAEAV?$allocator@N@2@XZ
    ?_Get_first@?$_Compressed_pair@V?$allocator@N@std@@V?$_Vector_val@U?$_Simple_types@N@std@@@2@$00@std@@QEBAAEBV?$allocator@N@2@XZ
    ?_Get_first@?$_Compressed_pair@V?$allocator@P6APEAU_object@@PEAU1@PEAU_typeobject@@@Z@std@@V?$_Vector_val@U?$_Simple_types@P6APEAU_object@@PEAU1@PEAU_typeobject@@@Z@std@@@2@$00@std@@QEAAAEAV?$allocator@P6APEAU_object@@PEAU1@PEAU_typeobject@@@Z@2@XZ
    ?_Get_first@?$_Compressed_pair@V?$allocator@P6A_NPEAU_object@@AEAPEAX@Z@std@@V?$_Vector_val@U?$_Simple_types@P6A_NPEAU_object@@AEAPEAX@Z@std@@@2@$00@std@@QEAAAEAV?$allocator@P6A_NPEAU_object@@AEAPEAX@Z@2@XZ
    ?_Get_first@?$_Compressed_pair@V?$allocator@PEAD@std@@V?$_Vector_val@U?$_Simple_types@PEAD@std@@@2@$00@std@@QEAAAEAV?$allocator@PEAD@2@XZ
    ?_Get_first@?$_Compressed_pair@V?$allocator@PEAD@std@@V?$_Vector_val@U?$_Simple_types@PEAD@std@@@2@$00@std@@QEBAAEBV?$allocator@PEAD@2@XZ
    ?_Get_first@?$_Compressed_pair@V?$allocator@PEAU_object@@@std@@V?$_Vector_val@U?$_Simple_types@PEAU_object@@@std@@@2@$00@std@@QEAAAEAV?$allocator@PEAU_object@@@2@XZ
    ?_Get_first@?$_Compressed_pair@V?$allocator@PEAU_typeobject@@@std@@V?$_Vector_val@U?$_Simple_types@PEAU_typeobject@@@std@@@2@$00@std@@QEAAAEAV?$allocator@PEAU_typeobject@@@2@XZ
    ?_Get_first@?$_Compressed_pair@V?$allocator@PEAU_typeobject@@@std@@V?$_Vector_val@U?$_Simple_types@PEAU_typeobject@@@std@@@2@$00@std@@QEBAAEBV?$allocator@PEAU_typeobject@@@2@XZ
    ?_Get_first@?$_Compressed_pair@V?$allocator@PEAUtype_info@detail@pybind11@@@std@@V?$_Vector_val@U?$_Simple_types@PEAUtype_info@detail@pybind11@@@std@@@2@$00@std@@QEAAAEAV?$allocator@PEAUtype_info@detail@pybind11@@@2@XZ
    ?_Get_first@?$_Compressed_pair@V?$allocator@PEAUtype_info@detail@pybind11@@@std@@V?$_Vector_val@U?$_Simple_types@PEAUtype_info@detail@pybind11@@@std@@@2@$00@std@@QEBAAEBV?$allocator@PEAUtype_info@detail@pybind11@@@2@XZ
    ?_Get_first@?$_Compressed_pair@V?$allocator@U?$_Flist_node@P6AXVexception_ptr@std@@@ZPEAX@std@@@std@@V?$_Flist_val@U?$_Flist_simple_types@P6AXVexception_ptr@std@@@Z@std@@@2@$00@std@@QEAAAEAV?$allocator@U?$_Flist_node@P6AXVexception_ptr@std@@@ZPEAX@std@@@2@XZ
    ?_Get_first@?$_Compressed_pair@V?$allocator@U?$_Flist_node@V?$basic_string@DU?$char_traits@D@std@@V?$allocator@D@2@@std@@PEAX@std@@@std@@V?$_Flist_val@U?$_Flist_simple_types@V?$basic_string@DU?$char_traits@D@std@@V?$allocator@D@2@@std@@@std@@@2@$00@std@@QEAAAEAV?$allocator@U?$_Flist_node@V?$basic_string@DU?$char_traits@D@std@@V?$allocator@D@2@@std@@PEAX@std@@@2@XZ
    ?_Get_first@?$_Compressed_pair@V?$allocator@U?$_List_node@PEAU_object@@PEAX@std@@@std@@V?$_List_val@U?$_List_simple_types@PEAU_object@@@std@@@2@$00@std@@QEAAAEAV?$allocator@U?$_List_node@PEAU_object@@PEAX@std@@@2@XZ
    ?_Get_first@?$_Compressed_pair@V?$allocator@U?$_List_node@U?$pair@$$CBV?$basic_string@DU?$char_traits@D@std@@V?$allocator@D@2@@std@@PEAX@std@@PEAX@std@@@std@@V?$_List_val@U?$_List_simple_types@U?$pair@$$CBV?$basic_string@DU?$char_traits@D@std@@V?$allocator@D@2@@std@@PEAX@std@@@std@@@2@$00@std@@QEAAAEAV?$allocator@U?$_List_node@U?$pair@$$CBV?$basic_string@DU?$char_traits@D@std@@V?$allocator@D@2@@std@@PEAX@std@@PEAX@std@@@2@XZ
    ?_Get_first@?$_Compressed_pair@V?$allocator@U?$_List_node@U?$pair@$$CBVtype_index@std@@PEAUtype_info@detail@pybind11@@@std@@PEAX@std@@@std@@V?$_List_val@U?$_List_simple_types@U?$pair@$$CBVtype_index@std@@PEAUtype_info@detail@pybind11@@@std@@@std@@@2@$00@std@@QEAAAEAV?$allocator@U?$_List_node@U?$pair@$$CBVtype_index@std@@PEAUtype_info@detail@pybind11@@@std@@PEAX@std@@@2@XZ
    ?_Get_first@?$_Compressed_pair@V?$allocator@U?$_List_node@U?$pair@$$CBVtype_index@std@@V?$vector@P6A_NPEAU_object@@AEAPEAX@ZV?$allocator@P6A_NPEAU_object@@AEAPEAX@Z@std@@@2@@std@@PEAX@std@@@std@@V?$_List_val@U?$_List_simple_types@U?$pair@$$CBVtype_index@std@@V?$vector@P6A_NPEAU_object@@AEAPEAX@ZV?$allocator@P6A_NPEAU_object@@AEAPEAX@Z@std@@@2@@std@@@std@@@2@$00@std@@QEAAAEAV?$allocator@U?$_List_node@U?$pair@$$CBVtype_index@std@@V?$vector@P6A_NPEAU_object@@AEAPEAX@ZV?$allocator@P6A_NPEAU_object@@AEAPEAX@Z@std@@@2@@std@@PEAX@std@@@2@XZ
    ?_Get_first@?$_Compressed_pair@V?$allocator@U?$_List_node@U?$pair@PEBU_object@@PEBD@std@@PEAX@std@@@std@@V?$_List_val@U?$_List_simple_types@U?$pair@PEBU_object@@PEBD@std@@@std@@@2@$00@std@@QEAAAEAV?$allocator@U?$_List_node@U?$pair@PEBU_object@@PEBD@std@@PEAX@std@@@2@XZ
    ?_Get_first@?$_Compressed_pair@V?$allocator@U?$_List_node@U?$pair@QEAU_typeobject@@V?$vector@PEAUtype_info@detail@pybind11@@V?$allocator@PEAUtype_info@detail@pybind11@@@std@@@std@@@std@@PEAX@std@@@std@@V?$_List_val@U?$_List_simple_types@U?$pair@QEAU_typeobject@@V?$vector@PEAUtype_info@detail@pybind11@@V?$allocator@PEAUtype_info@detail@pybind11@@@std@@@std@@@std@@@std@@@2@$00@std@@QEAAAEAV?$allocator@U?$_List_node@U?$pair@QEAU_typeobject@@V?$vector@PEAUtype_info@detail@pybind11@@V?$allocator@PEAUtype_info@detail@pybind11@@@std@@@std@@@std@@PEAX@std@@@2@XZ
    ?_Get_first@?$_Compressed_pair@V?$allocator@U?$_List_node@U?$pair@QEAU_typeobject@@V?$vector@PEAUtype_info@detail@pybind11@@V?$allocator@PEAUtype_info@detail@pybind11@@@std@@@std@@@std@@PEAX@std@@@std@@V?$_List_val@U?$_List_simple_types@U?$pair@QEAU_typeobject@@V?$vector@PEAUtype_info@detail@pybind11@@V?$allocator@PEAUtype_info@detail@pybind11@@@std@@@std@@@std@@@std@@@2@$00@std@@QEBAAEBV?$allocator@U?$_List_node@U?$pair@QEAU_typeobject@@V?$vector@PEAUtype_info@detail@pybind11@@V?$allocator@PEAUtype_info@detail@pybind11@@@std@@@std@@@std@@PEAX@std@@@2@XZ
    ?_Get_first@?$_Compressed_pair@V?$allocator@U?$_List_node@U?$pair@QEBU_object@@V?$vector@PEAU_object@@V?$allocator@PEAU_object@@@std@@@std@@@std@@PEAX@std@@@std@@V?$_List_val@U?$_List_simple_types@U?$pair@QEBU_object@@V?$vector@PEAU_object@@V?$allocator@PEAU_object@@@std@@@std@@@std@@@std@@@2@$00@std@@QEAAAEAV?$allocator@U?$_List_node@U?$pair@QEBU_object@@V?$vector@PEAU_object@@V?$allocator@PEAU_object@@@std@@@std@@@std@@PEAX@std@@@2@XZ
    ?_Get_first@?$_Compressed_pair@V?$allocator@U?$_List_node@U?$pair@QEBXPEAUinstance@detail@pybind11@@@std@@PEAX@std@@@std@@V?$_List_val@U?$_List_simple_types@U?$pair@QEBXPEAUinstance@detail@pybind11@@@std@@@std@@@2@$00@std@@QEAAAEAV?$allocator@U?$_List_node@U?$pair@QEBXPEAUinstance@detail@pybind11@@@std@@PEAX@std@@@2@XZ
    ?_Get_first@?$_Compressed_pair@V?$allocator@U?$pair@PEBVtype_info@@P6APEAXPEAX@Z@std@@@std@@V?$_Vector_val@U?$_Simple_types@U?$pair@PEBVtype_info@@P6APEAXPEAX@Z@std@@@std@@@2@$00@std@@QEAAAEAV?$allocator@U?$pair@PEBVtype_info@@P6APEAXPEAX@Z@std@@@2@XZ
    ?_Get_first@?$_Compressed_pair@V?$allocator@Uargument_record@detail@pybind11@@@std@@V?$_Vector_val@U?$_Simple_types@Uargument_record@detail@pybind11@@@std@@@2@$00@std@@QEAAAEAV?$allocator@Uargument_record@detail@pybind11@@@2@XZ
    ?_Get_first@?$_Compressed_pair@V?$allocator@Uargument_record@detail@pybind11@@@std@@V?$_Vector_val@U?$_Simple_types@Uargument_record@detail@pybind11@@@std@@@2@$00@std@@QEBAAEBV?$allocator@Uargument_record@detail@pybind11@@@2@XZ
    ?_Get_first@?$_Compressed_pair@V?$allocator@Ufunction_call@detail@pybind11@@@std@@V?$_Vector_val@U?$_Simple_types@Ufunction_call@detail@pybind11@@@std@@@2@$00@std@@QEAAAEAV?$allocator@Ufunction_call@detail@pybind11@@@2@XZ
    ?_Get_first@?$_Compressed_pair@V?$allocator@Ufunction_call@detail@pybind11@@@std@@V?$_Vector_val@U?$_Simple_types@Ufunction_call@detail@pybind11@@@std@@@2@$00@std@@QEBAAEBV?$allocator@Ufunction_call@detail@pybind11@@@2@XZ
    ?_Get_first@?$_Compressed_pair@V?$allocator@V?$_List_unchecked_const_iterator@V?$_List_val@U?$_List_simple_types@PEAU_object@@@std@@@std@@U_Iterator_base0@2@@std@@@std@@V?$_Vector_val@U?$_Simple_types@V?$_List_unchecked_const_iterator@V?$_List_val@U?$_List_simple_types@PEAU_object@@@std@@@std@@U_Iterator_base0@2@@std@@@std@@@2@$00@std@@QEAAAEAV?$allocator@V?$_List_unchecked_const_iterator@V?$_List_val@U?$_List_simple_types@PEAU_object@@@std@@@std@@U_Iterator_base0@2@@std@@@2@XZ
    ?_Get_first@?$_Compressed_pair@V?$allocator@V?$_List_unchecked_const_iterator@V?$_List_val@U?$_List_simple_types@U?$pair@PEBU_object@@PEBD@std@@@std@@@std@@U_Iterator_base0@2@@std@@@std@@V?$_Vector_val@U?$_Simple_types@V?$_List_unchecked_const_iterator@V?$_List_val@U?$_List_simple_types@U?$pair@PEBU_object@@PEBD@std@@@std@@@std@@U_Iterator_base0@2@@std@@@std@@@2@$00@std@@QEAAAEAV?$allocator@V?$_List_unchecked_const_iterator@V?$_List_val@U?$_List_simple_types@U?$pair@PEBU_object@@PEBD@std@@@std@@@std@@U_Iterator_base0@2@@std@@@2@XZ
    ?_Get_first@?$_Compressed_pair@V?$allocator@V?$_List_unchecked_iterator@V?$_List_val@U?$_List_simple_types@U?$pair@$$CBV?$basic_string@DU?$char_traits@D@std@@V?$allocator@D@2@@std@@PEAX@std@@@std@@@std@@@std@@@std@@V?$_Vector_val@U?$_Simple_types@V?$_List_unchecked_iterator@V?$_List_val@U?$_List_simple_types@U?$pair@$$CBV?$basic_string@DU?$char_traits@D@std@@V?$allocator@D@2@@std@@PEAX@std@@@std@@@std@@@std@@@std@@@2@$00@std@@QEAAAEAV?$allocator@V?$_List_unchecked_iterator@V?$_List_val@U?$_List_simple_types@U?$pair@$$CBV?$basic_string@DU?$char_traits@D@std@@V?$allocator@D@2@@std@@PEAX@std@@@std@@@std@@@std@@@2@XZ
    ?_Get_first@?$_Compressed_pair@V?$allocator@V?$_List_unchecked_iterator@V?$_List_val@U?$_List_simple_types@U?$pair@$$CBVtype_index@std@@PEAUtype_info@detail@pybind11@@@std@@@std@@@std@@@std@@@std@@V?$_Vector_val@U?$_Simple_types@V?$_List_unchecked_iterator@V?$_List_val@U?$_List_simple_types@U?$pair@$$CBVtype_index@std@@PEAUtype_info@detail@pybind11@@@std@@@std@@@std@@@std@@@std@@@2@$00@std@@QEAAAEAV?$allocator@V?$_List_unchecked_iterator@V?$_List_val@U?$_List_simple_types@U?$pair@$$CBVtype_index@std@@PEAUtype_info@detail@pybind11@@@std@@@std@@@std@@@std@@@2@XZ
    ?_Get_first@?$_Compressed_pair@V?$allocator@V?$_List_unchecked_iterator@V?$_List_val@U?$_List_simple_types@U?$pair@$$CBVtype_index@std@@V?$vector@P6A_NPEAU_object@@AEAPEAX@ZV?$allocator@P6A_NPEAU_object@@AEAPEAX@Z@std@@@2@@std@@@std@@@std@@@std@@@std@@V?$_Vector_val@U?$_Simple_types@V?$_List_unchecked_iterator@V?$_List_val@U?$_List_simple_types@U?$pair@$$CBVtype_index@std@@V?$vector@P6A_NPEAU_object@@AEAPEAX@ZV?$allocator@P6A_NPEAU_object@@AEAPEAX@Z@std@@@2@@std@@@std@@@std@@@std@@@std@@@2@$00@std@@QEAAAEAV?$allocator@V?$_List_unchecked_iterator@V?$_List_val@U?$_List_simple_types@U?$pair@$$CBVtype_index@std@@V?$vector@P6A_NPEAU_object@@AEAPEAX@ZV?$allocator@P6A_NPEAU_object@@AEAPEAX@Z@std@@@2@@std@@@std@@@std@@@std@@@2@XZ
    ?_Get_first@?$_Compressed_pair@V?$allocator@V?$_List_unchecked_iterator@V?$_List_val@U?$_List_simple_types@U?$pair@QEAU_typeobject@@V?$vector@PEAUtype_info@detail@pybind11@@V?$allocator@PEAUtype_info@detail@pybind11@@@std@@@std@@@std@@@std@@@std@@@std@@@std@@V?$_Vector_val@U?$_Simple_types@V?$_List_unchecked_iterator@V?$_List_val@U?$_List_simple_types@U?$pair@QEAU_typeobject@@V?$vector@PEAUtype_info@detail@pybind11@@V?$allocator@PEAUtype_info@detail@pybind11@@@std@@@std@@@std@@@std@@@std@@@std@@@std@@@2@$00@std@@QEAAAEAV?$allocator@V?$_List_unchecked_iterator@V?$_List_val@U?$_List_simple_types@U?$pair@QEAU_typeobject@@V?$vector@PEAUtype_info@detail@pybind11@@V?$allocator@PEAUtype_info@detail@pybind11@@@std@@@std@@@std@@@std@@@std@@@std@@@2@XZ
    ?_Get_first@?$_Compressed_pair@V?$allocator@V?$_List_unchecked_iterator@V?$_List_val@U?$_List_simple_types@U?$pair@QEAU_typeobject@@V?$vector@PEAUtype_info@detail@pybind11@@V?$allocator@PEAUtype_info@detail@pybind11@@@std@@@std@@@std@@@std@@@std@@@std@@@std@@V?$_Vector_val@U?$_Simple_types@V?$_List_unchecked_iterator@V?$_List_val@U?$_List_simple_types@U?$pair@QEAU_typeobject@@V?$vector@PEAUtype_info@detail@pybind11@@V?$allocator@PEAUtype_info@detail@pybind11@@@std@@@std@@@std@@@std@@@std@@@std@@@std@@@2@$00@std@@QEBAAEBV?$allocator@V?$_List_unchecked_iterator@V?$_List_val@U?$_List_simple_types@U?$pair@QEAU_typeobject@@V?$vector@PEAUtype_info@detail@pybind11@@V?$allocator@PEAUtype_info@detail@pybind11@@@std@@@std@@@std@@@std@@@std@@@std@@@2@XZ
    ?_Get_first@?$_Compressed_pair@V?$allocator@V?$_List_unchecked_iterator@V?$_List_val@U?$_List_simple_types@U?$pair@QEBU_object@@V?$vector@PEAU_object@@V?$allocator@PEAU_object@@@std@@@std@@@std@@@std@@@std@@@std@@@std@@V?$_Vector_val@U?$_Simple_types@V?$_List_unchecked_iterator@V?$_List_val@U?$_List_simple_types@U?$pair@QEBU_object@@V?$vector@PEAU_object@@V?$allocator@PEAU_object@@@std@@@std@@@std@@@std@@@std@@@std@@@std@@@2@$00@std@@QEAAAEAV?$allocator@V?$_List_unchecked_iterator@V?$_List_val@U?$_List_simple_types@U?$pair@QEBU_object@@V?$vector@PEAU_object@@V?$allocator@PEAU_object@@@std@@@std@@@std@@@std@@@std@@@std@@@2@XZ
    ?_Get_first@?$_Compressed_pair@V?$allocator@V?$_List_unchecked_iterator@V?$_List_val@U?$_List_simple_types@U?$pair@QEBXPEAUinstance@detail@pybind11@@@std@@@std@@@std@@@std@@@std@@V?$_Vector_val@U?$_Simple_types@V?$_List_unchecked_iterator@V?$_List_val@U?$_List_simple_types@U?$pair@QEBXPEAUinstance@detail@pybind11@@@std@@@std@@@std@@@std@@@std@@@2@$00@std@@QEAAAEAV?$allocator@V?$_List_unchecked_iterator@V?$_List_val@U?$_List_simple_types@U?$pair@QEBXPEAUinstance@detail@pybind11@@@std@@@std@@@std@@@std@@@2@XZ
    ?_Get_first@?$_Compressed_pair@V?$allocator@Vhandle@pybind11@@@std@@V?$_Vector_val@U?$_Simple_types@Vhandle@pybind11@@@std@@@2@$00@std@@QEAAAEAV?$allocator@Vhandle@pybind11@@@2@XZ
    ?_Get_first@?$_Compressed_pair@V?$allocator@Vhandle@pybind11@@@std@@V?$_Vector_val@U?$_Simple_types@Vhandle@pybind11@@@std@@@2@$00@std@@QEBAAEBV?$allocator@Vhandle@pybind11@@@2@XZ
    ?_Get_max_bucket_size@?$_Uhash_compare@PEAU_object@@U?$hash@PEAU_object@@@std@@U?$equal_to@PEAU_object@@@3@@std@@QEAAAEAMXZ
    ?_Get_max_bucket_size@?$_Uhash_compare@PEAU_typeobject@@U?$hash@PEAU_typeobject@@@std@@U?$equal_to@PEAU_typeobject@@@3@@std@@QEAAAEAMXZ
    ?_Get_max_bucket_size@?$_Uhash_compare@PEAU_typeobject@@U?$hash@PEAU_typeobject@@@std@@U?$equal_to@PEAU_typeobject@@@3@@std@@QEBAAEBMXZ
    ?_Get_max_bucket_size@?$_Uhash_compare@PEBU_object@@U?$hash@PEBU_object@@@std@@U?$equal_to@PEBU_object@@@3@@std@@QEAAAEAMXZ
    ?_Get_max_bucket_size@?$_Uhash_compare@PEBXU?$hash@PEBX@std@@U?$equal_to@PEBX@2@@std@@QEAAAEAMXZ
    ?_Get_max_bucket_size@?$_Uhash_compare@U?$pair@PEBU_object@@PEBD@std@@Uoverride_hash@detail@pybind11@@U?$equal_to@U?$pair@PEBU_object@@PEBD@std@@@2@@std@@QEAAAEAMXZ
    ?_Get_max_bucket_size@?$_Uhash_compare@V?$basic_string@DU?$char_traits@D@std@@V?$allocator@D@2@@std@@U?$hash@V?$basic_string@DU?$char_traits@D@std@@V?$allocator@D@2@@std@@@2@U?$equal_to@V?$basic_string@DU?$char_traits@D@std@@V?$allocator@D@2@@std@@@2@@std@@QEAAAEAMXZ
    ?_Get_max_bucket_size@?$_Uhash_compare@Vtype_index@std@@U?$hash@Vtype_index@std@@@2@U?$equal_to@Vtype_index@std@@@2@@std@@QEAAAEAMXZ
    ?_Get_value@?$_Alloc_temporary2@V?$allocator@PEAUtype_info@detail@pybind11@@@std@@@std@@QEAAAEAPEAUtype_info@detail@pybind11@@XZ
    ?_Getal@?$basic_string@DU?$char_traits@D@std@@V?$allocator@D@2@@std@@AEAAAEAV?$allocator@D@2@XZ
    ?_Getal@?$basic_string@DU?$char_traits@D@std@@V?$allocator@D@2@@std@@AEBAAEBV?$allocator@D@2@XZ
    ?_Getal@?$forward_list@P6AXVexception_ptr@std@@@ZV?$allocator@P6AXVexception_ptr@std@@@Z@2@@std@@AEAAAEAV?$allocator@U?$_Flist_node@P6AXVexception_ptr@std@@@ZPEAX@std@@@2@XZ
    ?_Getal@?$forward_list@V?$basic_string@DU?$char_traits@D@std@@V?$allocator@D@2@@std@@V?$allocator@V?$basic_string@DU?$char_traits@D@std@@V?$allocator@D@2@@std@@@2@@std@@AEAAAEAV?$allocator@U?$_Flist_node@V?$basic_string@DU?$char_traits@D@std@@V?$allocator@D@2@@std@@PEAX@std@@@2@XZ
    ?_Getal@?$list@PEAU_object@@V?$allocator@PEAU_object@@@std@@@std@@AEAAAEAV?$allocator@U?$_List_node@PEAU_object@@PEAX@std@@@2@XZ
    ?_Getal@?$list@U?$pair@$$CBV?$basic_string@DU?$char_traits@D@std@@V?$allocator@D@2@@std@@PEAX@std@@V?$allocator@U?$pair@$$CBV?$basic_string@DU?$char_traits@D@std@@V?$allocator@D@2@@std@@PEAX@std@@@2@@std@@AEAAAEAV?$allocator@U?$_List_node@U?$pair@$$CBV?$basic_string@DU?$char_traits@D@std@@V?$allocator@D@2@@std@@PEAX@std@@PEAX@std@@@2@XZ
    ?_Getal@?$list@U?$pair@$$CBVtype_index@std@@PEAUtype_info@detail@pybind11@@@std@@V?$allocator@U?$pair@$$CBVtype_index@std@@PEAUtype_info@detail@pybind11@@@std@@@2@@std@@AEAAAEAV?$allocator@U?$_List_node@U?$pair@$$CBVtype_index@std@@PEAUtype_info@detail@pybind11@@@std@@PEAX@std@@@2@XZ
    ?_Getal@?$list@U?$pair@$$CBVtype_index@std@@V?$vector@P6A_NPEAU_object@@AEAPEAX@ZV?$allocator@P6A_NPEAU_object@@AEAPEAX@Z@std@@@2@@std@@V?$allocator@U?$pair@$$CBVtype_index@std@@V?$vector@P6A_NPEAU_object@@AEAPEAX@ZV?$allocator@P6A_NPEAU_object@@AEAPEAX@Z@std@@@2@@std@@@2@@std@@AEAAAEAV?$allocator@U?$_List_node@U?$pair@$$CBVtype_index@std@@V?$vector@P6A_NPEAU_object@@AEAPEAX@ZV?$allocator@P6A_NPEAU_object@@AEAPEAX@Z@std@@@2@@std@@PEAX@std@@@2@XZ
    ?_Getal@?$list@U?$pair@PEBU_object@@PEBD@std@@V?$allocator@U?$pair@PEBU_object@@PEBD@std@@@2@@std@@AEAAAEAV?$allocator@U?$_List_node@U?$pair@PEBU_object@@PEBD@std@@PEAX@std@@@2@XZ
    ?_Getal@?$list@U?$pair@QEAU_typeobject@@V?$vector@PEAUtype_info@detail@pybind11@@V?$allocator@PEAUtype_info@detail@pybind11@@@std@@@std@@@std@@V?$allocator@U?$pair@QEAU_typeobject@@V?$vector@PEAUtype_info@detail@pybind11@@V?$allocator@PEAUtype_info@detail@pybind11@@@std@@@std@@@std@@@2@@std@@AEAAAEAV?$allocator@U?$_List_node@U?$pair@QEAU_typeobject@@V?$vector@PEAUtype_info@detail@pybind11@@V?$allocator@PEAUtype_info@detail@pybind11@@@std@@@std@@@std@@PEAX@std@@@2@XZ
    ?_Getal@?$list@U?$pair@QEAU_typeobject@@V?$vector@PEAUtype_info@detail@pybind11@@V?$allocator@PEAUtype_info@detail@pybind11@@@std@@@std@@@std@@V?$allocator@U?$pair@QEAU_typeobject@@V?$vector@PEAUtype_info@detail@pybind11@@V?$allocator@PEAUtype_info@detail@pybind11@@@std@@@std@@@std@@@2@@std@@AEBAAEBV?$allocator@U?$_List_node@U?$pair@QEAU_typeobject@@V?$vector@PEAUtype_info@detail@pybind11@@V?$allocator@PEAUtype_info@detail@pybind11@@@std@@@std@@@std@@PEAX@std@@@2@XZ
    ?_Getal@?$list@U?$pair@QEBU_object@@V?$vector@PEAU_object@@V?$allocator@PEAU_object@@@std@@@std@@@std@@V?$allocator@U?$pair@QEBU_object@@V?$vector@PEAU_object@@V?$allocator@PEAU_object@@@std@@@std@@@std@@@2@@std@@AEAAAEAV?$allocator@U?$_List_node@U?$pair@QEBU_object@@V?$vector@PEAU_object@@V?$allocator@PEAU_object@@@std@@@std@@@std@@PEAX@std@@@2@XZ
    ?_Getal@?$list@U?$pair@QEBXPEAUinstance@detail@pybind11@@@std@@V?$allocator@U?$pair@QEBXPEAUinstance@detail@pybind11@@@std@@@2@@std@@AEAAAEAV?$allocator@U?$_List_node@U?$pair@QEBXPEAUinstance@detail@pybind11@@@std@@PEAX@std@@@2@XZ
    ?_Getal@?$vector@IV?$allocator@I@std@@@std@@AEAAAEAV?$allocator@I@2@XZ
    ?_Getal@?$vector@IV?$allocator@I@std@@@std@@AEBAAEBV?$allocator@I@2@XZ
    ?_Getal@?$vector@NV?$allocator@N@std@@@std@@AEAAAEAV?$allocator@N@2@XZ
    ?_Getal@?$vector@NV?$allocator@N@std@@@std@@AEBAAEBV?$allocator@N@2@XZ
    ?_Getal@?$vector@P6APEAU_object@@PEAU1@PEAU_typeobject@@@ZV?$allocator@P6APEAU_object@@PEAU1@PEAU_typeobject@@@Z@std@@@std@@AEAAAEAV?$allocator@P6APEAU_object@@PEAU1@PEAU_typeobject@@@Z@2@XZ
    ?_Getal@?$vector@P6A_NPEAU_object@@AEAPEAX@ZV?$allocator@P6A_NPEAU_object@@AEAPEAX@Z@std@@@std@@AEAAAEAV?$allocator@P6A_NPEAU_object@@AEAPEAX@Z@2@XZ
    ?_Getal@?$vector@PEADV?$allocator@PEAD@std@@@std@@AEAAAEAV?$allocator@PEAD@2@XZ
    ?_Getal@?$vector@PEADV?$allocator@PEAD@std@@@std@@AEBAAEBV?$allocator@PEAD@2@XZ
    ?_Getal@?$vector@PEAU_object@@V?$allocator@PEAU_object@@@std@@@std@@AEAAAEAV?$allocator@PEAU_object@@@2@XZ
    ?_Getal@?$vector@PEAU_typeobject@@V?$allocator@PEAU_typeobject@@@std@@@std@@AEAAAEAV?$allocator@PEAU_typeobject@@@2@XZ
    ?_Getal@?$vector@PEAU_typeobject@@V?$allocator@PEAU_typeobject@@@std@@@std@@AEBAAEBV?$allocator@PEAU_typeobject@@@2@XZ
    ?_Getal@?$vector@PEAUtype_info@detail@pybind11@@V?$allocator@PEAUtype_info@detail@pybind11@@@std@@@std@@AEAAAEAV?$allocator@PEAUtype_info@detail@pybind11@@@2@XZ
    ?_Getal@?$vector@PEAUtype_info@detail@pybind11@@V?$allocator@PEAUtype_info@detail@pybind11@@@std@@@std@@AEBAAEBV?$allocator@PEAUtype_info@detail@pybind11@@@2@XZ
    ?_Getal@?$vector@U?$pair@PEBVtype_info@@P6APEAXPEAX@Z@std@@V?$allocator@U?$pair@PEBVtype_info@@P6APEAXPEAX@Z@std@@@2@@std@@AEAAAEAV?$allocator@U?$pair@PEBVtype_info@@P6APEAXPEAX@Z@std@@@2@XZ
    ?_Getal@?$vector@Uargument_record@detail@pybind11@@V?$allocator@Uargument_record@detail@pybind11@@@std@@@std@@AEAAAEAV?$allocator@Uargument_record@detail@pybind11@@@2@XZ
    ?_Getal@?$vector@Uargument_record@detail@pybind11@@V?$allocator@Uargument_record@detail@pybind11@@@std@@@std@@AEBAAEBV?$allocator@Uargument_record@detail@pybind11@@@2@XZ
    ?_Getal@?$vector@Ufunction_call@detail@pybind11@@V?$allocator@Ufunction_call@detail@pybind11@@@std@@@std@@AEAAAEAV?$allocator@Ufunction_call@detail@pybind11@@@2@XZ
    ?_Getal@?$vector@Ufunction_call@detail@pybind11@@V?$allocator@Ufunction_call@detail@pybind11@@@std@@@std@@AEBAAEBV?$allocator@Ufunction_call@detail@pybind11@@@2@XZ
    ?_Getal@?$vector@Vhandle@pybind11@@V?$allocator@Vhandle@pybind11@@@std@@@std@@AEAAAEAV?$allocator@Vhandle@pybind11@@@2@XZ
    ?_Getal@?$vector@Vhandle@pybind11@@V?$allocator@Vhandle@pybind11@@@std@@@std@@AEBAAEBV?$allocator@Vhandle@pybind11@@@2@XZ
    ?_Getcont@_Iterator_base0@std@@QEBAPEBU_Container_base0@2@XZ
    ?_Getptr@?$_Vb_reference@U?$_Wrap_alloc@V?$allocator@I@std@@@std@@@std@@QEBAPEBIXZ
    ?_Incref@?$_Ptr_base@Uerror_fetch_and_normalize@detail@pybind11@@@std@@IEBAXXZ
    ?_Incref@_Ref_count_base@std@@QEAAXXZ
    ?_Insert_n@?$vector@_NV?$allocator@_N@std@@@std@@QEAA?AV?$_Vb_iterator@U?$_Wrap_alloc@V?$allocator@I@std@@@std@@@2@V?$_Vb_const_iterator@U?$_Wrap_alloc@V?$allocator@I@std@@@std@@@2@_KAEB_N@Z
    ?_Insert_new_node_before@?$_Hash@V?$_Umap_traits@PEAU_typeobject@@V?$vector@PEAUtype_info@detail@pybind11@@V?$allocator@PEAUtype_info@detail@pybind11@@@std@@@std@@V?$_Uhash_compare@PEAU_typeobject@@U?$hash@PEAU_typeobject@@@std@@U?$equal_to@PEAU_typeobject@@@3@@3@V?$allocator@U?$pair@QEAU_typeobject@@V?$vector@PEAUtype_info@detail@pybind11@@V?$allocator@PEAUtype_info@detail@pybind11@@@std@@@std@@@std@@@3@$0A@@std@@@std@@IEAAPEAU?$_List_node@U?$pair@QEAU_typeobject@@V?$vector@PEAUtype_info@detail@pybind11@@V?$allocator@PEAUtype_info@detail@pybind11@@@std@@@std@@@std@@PEAX@2@_KQEAU32@1@Z
    ?_Insert_x@?$vector@_NV?$allocator@_N@std@@@std@@QEAA_KV?$_Vb_const_iterator@U?$_Wrap_alloc@V?$allocator@I@std@@@std@@@2@_K@Z
    ?_Kfn@?$_Uset_traits@U?$pair@PEBU_object@@PEBD@std@@V?$_Uhash_compare@U?$pair@PEBU_object@@PEBD@std@@Uoverride_hash@detail@pybind11@@U?$equal_to@U?$pair@PEBU_object@@PEBD@std@@@2@@2@V?$allocator@U?$pair@PEBU_object@@PEBD@std@@@2@$0A@@std@@SAAEBU?$pair@PEBU_object@@PEBD@2@AEBU32@@Z
    ?_Large_mode_engaged@?$_String_val@U?$_Simple_types@D@std@@@std@@QEBA_NXZ
    ?_Make_const_iter@?$list@U?$pair@QEAU_typeobject@@V?$vector@PEAUtype_info@detail@pybind11@@V?$allocator@PEAUtype_info@detail@pybind11@@@std@@@std@@@std@@V?$allocator@U?$pair@QEAU_typeobject@@V?$vector@PEAUtype_info@detail@pybind11@@V?$allocator@PEAUtype_info@detail@pybind11@@@std@@@std@@@std@@@2@@std@@QEBA?AV?$_List_const_iterator@V?$_List_val@U?$_List_simple_types@U?$pair@QEAU_typeobject@@V?$vector@PEAUtype_info@detail@pybind11@@V?$allocator@PEAUtype_info@detail@pybind11@@@std@@@std@@@std@@@std@@@std@@@2@PEAU?$_List_node@U?$pair@QEAU_typeobject@@V?$vector@PEAUtype_info@detail@pybind11@@V?$allocator@PEAUtype_info@detail@pybind11@@@std@@@std@@@std@@PEAX@2@@Z
    ?_Make_iter@?$list@U?$pair@$$CBVtype_index@std@@PEAUtype_info@detail@pybind11@@@std@@V?$allocator@U?$pair@$$CBVtype_index@std@@PEAUtype_info@detail@pybind11@@@std@@@2@@std@@QEBA?AV?$_List_iterator@V?$_List_val@U?$_List_simple_types@U?$pair@$$CBVtype_index@std@@PEAUtype_info@detail@pybind11@@@std@@@std@@@std@@@2@PEAU?$_List_node@U?$pair@$$CBVtype_index@std@@PEAUtype_info@detail@pybind11@@@std@@PEAX@2@@Z
    ?_Make_iter@?$list@U?$pair@PEBU_object@@PEBD@std@@V?$allocator@U?$pair@PEBU_object@@PEBD@std@@@2@@std@@QEBA?AV?$_List_iterator@V?$_List_val@U?$_List_simple_types@U?$pair@PEBU_object@@PEBD@std@@@std@@@std@@@2@PEAU?$_List_node@U?$pair@PEBU_object@@PEBD@std@@PEAX@2@@Z
    ?_Make_iter@?$list@U?$pair@QEAU_typeobject@@V?$vector@PEAUtype_info@detail@pybind11@@V?$allocator@PEAUtype_info@detail@pybind11@@@std@@@std@@@std@@V?$allocator@U?$pair@QEAU_typeobject@@V?$vector@PEAUtype_info@detail@pybind11@@V?$allocator@PEAUtype_info@detail@pybind11@@@std@@@std@@@std@@@2@@std@@QEBA?AV?$_List_iterator@V?$_List_val@U?$_List_simple_types@U?$pair@QEAU_typeobject@@V?$vector@PEAUtype_info@detail@pybind11@@V?$allocator@PEAUtype_info@detail@pybind11@@@std@@@std@@@std@@@std@@@std@@@2@PEAU?$_List_node@U?$pair@QEAU_typeobject@@V?$vector@PEAUtype_info@detail@pybind11@@V?$allocator@PEAUtype_info@detail@pybind11@@@std@@@std@@@std@@PEAX@2@@Z
    ?_Make_iter@?$list@U?$pair@QEBU_object@@V?$vector@PEAU_object@@V?$allocator@PEAU_object@@@std@@@std@@@std@@V?$allocator@U?$pair@QEBU_object@@V?$vector@PEAU_object@@V?$allocator@PEAU_object@@@std@@@std@@@std@@@2@@std@@QEBA?AV?$_List_iterator@V?$_List_val@U?$_List_simple_types@U?$pair@QEBU_object@@V?$vector@PEAU_object@@V?$allocator@PEAU_object@@@std@@@std@@@std@@@std@@@std@@@2@PEAU?$_List_node@U?$pair@QEBU_object@@V?$vector@PEAU_object@@V?$allocator@PEAU_object@@@std@@@std@@@std@@PEAX@2@@Z
    ?_Make_iter@?$list@U?$pair@QEBXPEAUinstance@detail@pybind11@@@std@@V?$allocator@U?$pair@QEBXPEAUinstance@detail@pybind11@@@std@@@2@@std@@QEBA?AV?$_List_iterator@V?$_List_val@U?$_List_simple_types@U?$pair@QEBXPEAUinstance@detail@pybind11@@@std@@@std@@@std@@@2@PEAU?$_List_node@U?$pair@QEBXPEAUinstance@detail@pybind11@@@std@@PEAX@2@@Z
    ?_Make_iter@?$vector@_NV?$allocator@_N@std@@@std@@QEAA?AV?$_Vb_iterator@U?$_Wrap_alloc@V?$allocator@I@std@@@std@@@2@V?$_Vb_const_iterator@U?$_Wrap_alloc@V?$allocator@I@std@@@std@@@2@@Z
    ?_Make_iterator@?$vector@PEAUtype_info@detail@pybind11@@V?$allocator@PEAUtype_info@detail@pybind11@@@std@@@std@@AEAA?AV?$_Vector_iterator@V?$_Vector_val@U?$_Simple_types@PEAUtype_info@detail@pybind11@@@std@@@std@@@2@QEAPEAUtype_info@detail@pybind11@@@Z
    ?_Mark@?$_String_bitmap@D$00@std@@QEAA_NPEBDQEBD@Z
    ?_Mask@?$_Vb_reference@U?$_Wrap_alloc@V?$allocator@I@std@@@std@@@std@@IEBAIXZ
    ?_Match@?$_String_bitmap@D$00@std@@QEBA_ND@Z
    ?_Max_bucket_size@?$_Hash@V?$_Umap_traits@PEAU_typeobject@@V?$vector@PEAUtype_info@detail@pybind11@@V?$allocator@PEAUtype_info@detail@pybind11@@@std@@@std@@V?$_Uhash_compare@PEAU_typeobject@@U?$hash@PEAU_typeobject@@@std@@U?$equal_to@PEAU_typeobject@@@3@@3@V?$allocator@U?$pair@QEAU_typeobject@@V?$vector@PEAUtype_info@detail@pybind11@@V?$allocator@PEAUtype_info@detail@pybind11@@@std@@@std@@@std@@@3@$0A@@std@@@std@@IEAAAEAMXZ
    ?_Max_bucket_size@?$_Hash@V?$_Umap_traits@PEAU_typeobject@@V?$vector@PEAUtype_info@detail@pybind11@@V?$allocator@PEAUtype_info@detail@pybind11@@@std@@@std@@V?$_Uhash_compare@PEAU_typeobject@@U?$hash@PEAU_typeobject@@@std@@U?$equal_to@PEAU_typeobject@@@3@@3@V?$allocator@U?$pair@QEAU_typeobject@@V?$vector@PEAUtype_info@detail@pybind11@@V?$allocator@PEAUtype_info@detail@pybind11@@@std@@@std@@@std@@@3@$0A@@std@@@std@@IEBAAEBMXZ
    ?_Max_bucket_size@?$_Hash@V?$_Umap_traits@PEBU_object@@V?$vector@PEAU_object@@V?$allocator@PEAU_object@@@std@@@std@@V?$_Uhash_compare@PEBU_object@@U?$hash@PEBU_object@@@std@@U?$equal_to@PEBU_object@@@3@@3@V?$allocator@U?$pair@QEBU_object@@V?$vector@PEAU_object@@V?$allocator@PEAU_object@@@std@@@std@@@std@@@3@$0A@@std@@@std@@IEAAAEAMXZ
    ?_Max_bucket_size@?$_Hash@V?$_Umap_traits@PEBXPEAUinstance@detail@pybind11@@V?$_Uhash_compare@PEBXU?$hash@PEBX@std@@U?$equal_to@PEBX@2@@std@@V?$allocator@U?$pair@QEBXPEAUinstance@detail@pybind11@@@std@@@5@$00@std@@@std@@IEAAAEAMXZ
    ?_Max_bucket_size@?$_Hash@V?$_Umap_traits@V?$basic_string@DU?$char_traits@D@std@@V?$allocator@D@2@@std@@PEAXV?$_Uhash_compare@V?$basic_string@DU?$char_traits@D@std@@V?$allocator@D@2@@std@@U?$hash@V?$basic_string@DU?$char_traits@D@std@@V?$allocator@D@2@@std@@@2@U?$equal_to@V?$basic_string@DU?$char_traits@D@std@@V?$allocator@D@2@@std@@@2@@2@V?$allocator@U?$pair@$$CBV?$basic_string@DU?$char_traits@D@std@@V?$allocator@D@2@@std@@PEAX@std@@@2@$0A@@std@@@std@@IEAAAEAMXZ
    ?_Max_bucket_size@?$_Hash@V?$_Umap_traits@Vtype_index@std@@PEAUtype_info@detail@pybind11@@V?$_Uhash_compare@Vtype_index@std@@U?$hash@Vtype_index@std@@@2@U?$equal_to@Vtype_index@std@@@2@@2@V?$allocator@U?$pair@$$CBVtype_index@std@@PEAUtype_info@detail@pybind11@@@std@@@2@$0A@@std@@@std@@IEAAAEAMXZ
    ?_Max_bucket_size@?$_Hash@V?$_Umap_traits@Vtype_index@std@@V?$vector@P6A_NPEAU_object@@AEAPEAX@ZV?$allocator@P6A_NPEAU_object@@AEAPEAX@Z@std@@@2@V?$_Uhash_compare@Vtype_index@std@@U?$hash@Vtype_index@std@@@2@U?$equal_to@Vtype_index@std@@@2@@2@V?$allocator@U?$pair@$$CBVtype_index@std@@V?$vector@P6A_NPEAU_object@@AEAPEAX@ZV?$allocator@P6A_NPEAU_object@@AEAPEAX@Z@std@@@2@@std@@@2@$0A@@std@@@std@@IEAAAEAMXZ
    ?_Max_bucket_size@?$_Hash@V?$_Uset_traits@PEAU_object@@V?$_Uhash_compare@PEAU_object@@U?$hash@PEAU_object@@@std@@U?$equal_to@PEAU_object@@@3@@std@@V?$allocator@PEAU_object@@@3@$0A@@std@@@std@@IEAAAEAMXZ
    ?_Max_bucket_size@?$_Hash@V?$_Uset_traits@U?$pair@PEBU_object@@PEBD@std@@V?$_Uhash_compare@U?$pair@PEBU_object@@PEBD@std@@Uoverride_hash@detail@pybind11@@U?$equal_to@U?$pair@PEBU_object@@PEBD@std@@@2@@2@V?$allocator@U?$pair@PEBU_object@@PEBD@std@@@2@$0A@@std@@@std@@IEAAAEAMXZ
    ?_Min_load_factor_buckets@?$_Hash@V?$_Umap_traits@PEAU_typeobject@@V?$vector@PEAUtype_info@detail@pybind11@@V?$allocator@PEAUtype_info@detail@pybind11@@@std@@@std@@V?$_Uhash_compare@PEAU_typeobject@@U?$hash@PEAU_typeobject@@@std@@U?$equal_to@PEAU_typeobject@@@3@@3@V?$allocator@U?$pair@QEAU_typeobject@@V?$vector@PEAUtype_info@detail@pybind11@@V?$allocator@PEAUtype_info@detail@pybind11@@@std@@@std@@@std@@@3@$0A@@std@@@std@@IEBA_K_K@Z
    ?_Myptr@?$_String_val@U?$_Simple_types@D@std@@@std@@QEAAPEADXZ
    ?_Myptr@?$_String_val@U?$_Simple_types@D@std@@@std@@QEBAPEBDXZ
    ?_Nw@?$_Vb_val@V?$allocator@_N@std@@@std@@SA_K_K@Z
    ?_OptionsStorage@?1??__local_stdio_printf_options@@9@4_KA
    ?_Orphan_all@_Container_base0@std@@QEAAXXZ
    ?_Orphan_non_end@?$_List_val@U?$_List_simple_types@U?$pair@QEAU_typeobject@@V?$vector@PEAUtype_info@detail@pybind11@@V?$allocator@PEAUtype_info@detail@pybind11@@@std@@@std@@@std@@@std@@@std@@QEAAXXZ
    ?_Orphan_ptr2@?$_List_val@U?$_List_simple_types@U?$pair@$$CBVtype_index@std@@PEAUtype_info@detail@pybind11@@@std@@@std@@@std@@QEAAXPEAU?$_List_node@U?$pair@$$CBVtype_index@std@@PEAUtype_info@detail@pybind11@@@std@@PEAX@2@@Z
    ?_Orphan_ptr2@?$_List_val@U?$_List_simple_types@U?$pair@$$CBVtype_index@std@@V?$vector@P6A_NPEAU_object@@AEAPEAX@ZV?$allocator@P6A_NPEAU_object@@AEAPEAX@Z@std@@@2@@std@@@std@@@std@@QEAAXPEAU?$_List_node@U?$pair@$$CBVtype_index@std@@V?$vector@P6A_NPEAU_object@@AEAPEAX@ZV?$allocator@P6A_NPEAU_object@@AEAPEAX@Z@std@@@2@@std@@PEAX@2@@Z
    ?_Orphan_ptr2@?$_List_val@U?$_List_simple_types@U?$pair@PEBU_object@@PEBD@std@@@std@@@std@@QEAAXPEAU?$_List_node@U?$pair@PEBU_object@@PEBD@std@@PEAX@2@@Z
    ?_Orphan_ptr2@?$_List_val@U?$_List_simple_types@U?$pair@QEAU_typeobject@@V?$vector@PEAUtype_info@detail@pybind11@@V?$allocator@PEAUtype_info@detail@pybind11@@@std@@@std@@@std@@@std@@@std@@QEAAXPEAU?$_List_node@U?$pair@QEAU_typeobject@@V?$vector@PEAUtype_info@detail@pybind11@@V?$allocator@PEAUtype_info@detail@pybind11@@@std@@@std@@@std@@PEAX@2@@Z
    ?_Orphan_ptr2@?$_List_val@U?$_List_simple_types@U?$pair@QEBU_object@@V?$vector@PEAU_object@@V?$allocator@PEAU_object@@@std@@@std@@@std@@@std@@@std@@QEAAXPEAU?$_List_node@U?$pair@QEBU_object@@V?$vector@PEAU_object@@V?$allocator@PEAU_object@@@std@@@std@@@std@@PEAX@2@@Z
    ?_Orphan_ptr2@?$_List_val@U?$_List_simple_types@U?$pair@QEBXPEAUinstance@detail@pybind11@@@std@@@std@@@std@@QEAAXPEAU?$_List_node@U?$pair@QEBXPEAUinstance@detail@pybind11@@@std@@PEAX@2@@Z
    ?_Orphan_range@?$vector@IV?$allocator@I@std@@@std@@AEBAXPEAI0@Z
    ?_Orphan_range@?$vector@PEADV?$allocator@PEAD@std@@@std@@AEBAXPEAPEAD0@Z
    ?_Orphan_range@?$vector@PEAU_typeobject@@V?$allocator@PEAU_typeobject@@@std@@@std@@AEBAXPEAPEAU_typeobject@@0@Z
    ?_Orphan_range@?$vector@PEAUtype_info@detail@pybind11@@V?$allocator@PEAUtype_info@detail@pybind11@@@std@@@std@@AEBAXPEAPEAUtype_info@detail@pybind11@@0@Z
    ?_Orphan_range@?$vector@Uargument_record@detail@pybind11@@V?$allocator@Uargument_record@detail@pybind11@@@std@@@std@@AEBAXPEAUargument_record@detail@pybind11@@0@Z
    ?_Orphan_range@?$vector@Ufunction_call@detail@pybind11@@V?$allocator@Ufunction_call@detail@pybind11@@@std@@@std@@AEBAXPEAUfunction_call@detail@pybind11@@0@Z
    ?_Orphan_range@?$vector@Vhandle@pybind11@@V?$allocator@Vhandle@pybind11@@@std@@@std@@AEBAXPEAVhandle@pybind11@@0@Z
    ?_Rehash_for_1@?$_Hash@V?$_Umap_traits@PEAU_typeobject@@V?$vector@PEAUtype_info@detail@pybind11@@V?$allocator@PEAUtype_info@detail@pybind11@@@std@@@std@@V?$_Uhash_compare@PEAU_typeobject@@U?$hash@PEAU_typeobject@@@std@@U?$equal_to@PEAU_typeobject@@@3@@3@V?$allocator@U?$pair@QEAU_typeobject@@V?$vector@PEAUtype_info@detail@pybind11@@V?$allocator@PEAUtype_info@detail@pybind11@@@std@@@std@@@std@@@3@$0A@@std@@@std@@IEAAXXZ
    ?_Release@?$_Alloc_construct_ptr@V?$allocator@U?$_Flist_node@P6AXVexception_ptr@std@@@ZPEAX@std@@@std@@@std@@QEAAPEAU?$_Flist_node@P6AXVexception_ptr@std@@@ZPEAX@2@XZ
    ?_Release@?$_Alloc_construct_ptr@V?$allocator@U?$_List_node@U?$pair@QEAU_typeobject@@V?$vector@PEAUtype_info@detail@pybind11@@V?$allocator@PEAUtype_info@detail@pybind11@@@std@@@std@@@std@@PEAX@std@@@std@@@std@@QEAAPEAU?$_List_node@U?$pair@QEAU_typeobject@@V?$vector@PEAUtype_info@detail@pybind11@@V?$allocator@PEAUtype_info@detail@pybind11@@@std@@@std@@@std@@PEAX@2@XZ
    ?_Release@?$_Uninitialized_backout@PEAV?$_List_unchecked_const_iterator@V?$_List_val@U?$_List_simple_types@PEAU_object@@@std@@@std@@U_Iterator_base0@2@@std@@@std@@QEAAPEAV?$_List_unchecked_const_iterator@V?$_List_val@U?$_List_simple_types@PEAU_object@@@std@@@std@@U_Iterator_base0@2@@2@XZ
    ?_Release@?$_Uninitialized_backout@PEAV?$_List_unchecked_const_iterator@V?$_List_val@U?$_List_simple_types@U?$pair@PEBU_object@@PEBD@std@@@std@@@std@@U_Iterator_base0@2@@std@@@std@@QEAAPEAV?$_List_unchecked_const_iterator@V?$_List_val@U?$_List_simple_types@U?$pair@PEBU_object@@PEBD@std@@@std@@@std@@U_Iterator_base0@2@@2@XZ
    ?_Release@?$_Uninitialized_backout@PEAV?$_List_unchecked_iterator@V?$_List_val@U?$_List_simple_types@U?$pair@$$CBV?$basic_string@DU?$char_traits@D@std@@V?$allocator@D@2@@std@@PEAX@std@@@std@@@std@@@std@@@std@@QEAAPEAV?$_List_unchecked_iterator@V?$_List_val@U?$_List_simple_types@U?$pair@$$CBV?$basic_string@DU?$char_traits@D@std@@V?$allocator@D@2@@std@@PEAX@std@@@std@@@std@@@2@XZ
    ?_Release@?$_Uninitialized_backout@PEAV?$_List_unchecked_iterator@V?$_List_val@U?$_List_simple_types@U?$pair@$$CBVtype_index@std@@PEAUtype_info@detail@pybind11@@@std@@@std@@@std@@@std@@@std@@QEAAPEAV?$_List_unchecked_iterator@V?$_List_val@U?$_List_simple_types@U?$pair@$$CBVtype_index@std@@PEAUtype_info@detail@pybind11@@@std@@@std@@@std@@@2@XZ
    ?_Release@?$_Uninitialized_backout@PEAV?$_List_unchecked_iterator@V?$_List_val@U?$_List_simple_types@U?$pair@$$CBVtype_index@std@@V?$vector@P6A_NPEAU_object@@AEAPEAX@ZV?$allocator@P6A_NPEAU_object@@AEAPEAX@Z@std@@@2@@std@@@std@@@std@@@std@@@std@@QEAAPEAV?$_List_unchecked_iterator@V?$_List_val@U?$_List_simple_types@U?$pair@$$CBVtype_index@std@@V?$vector@P6A_NPEAU_object@@AEAPEAX@ZV?$allocator@P6A_NPEAU_object@@AEAPEAX@Z@std@@@2@@std@@@std@@@std@@@2@XZ
    ?_Release@?$_Uninitialized_backout@PEAV?$_List_unchecked_iterator@V?$_List_val@U?$_List_simple_types@U?$pair@QEAU_typeobject@@V?$vector@PEAUtype_info@detail@pybind11@@V?$allocator@PEAUtype_info@detail@pybind11@@@std@@@std@@@std@@@std@@@std@@@std@@@std@@QEAAPEAV?$_List_unchecked_iterator@V?$_List_val@U?$_List_simple_types@U?$pair@QEAU_typeobject@@V?$vector@PEAUtype_info@detail@pybind11@@V?$allocator@PEAUtype_info@detail@pybind11@@@std@@@std@@@std@@@std@@@std@@@2@XZ
    ?_Release@?$_Uninitialized_backout@PEAV?$_List_unchecked_iterator@V?$_List_val@U?$_List_simple_types@U?$pair@QEBU_object@@V?$vector@PEAU_object@@V?$allocator@PEAU_object@@@std@@@std@@@std@@@std@@@std@@@std@@@std@@QEAAPEAV?$_List_unchecked_iterator@V?$_List_val@U?$_List_simple_types@U?$pair@QEBU_object@@V?$vector@PEAU_object@@V?$allocator@PEAU_object@@@std@@@std@@@std@@@std@@@std@@@2@XZ
    ?_Release@?$_Uninitialized_backout@PEAV?$_List_unchecked_iterator@V?$_List_val@U?$_List_simple_types@U?$pair@QEBXPEAUinstance@detail@pybind11@@@std@@@std@@@std@@@std@@@std@@QEAAPEAV?$_List_unchecked_iterator@V?$_List_val@U?$_List_simple_types@U?$pair@QEBXPEAUinstance@detail@pybind11@@@std@@@std@@@std@@@2@XZ
    ?_Release@?$_Uninitialized_backout_al@V?$allocator@I@std@@@std@@QEAAPEAIXZ
    ?_Release@?$_Uninitialized_backout_al@V?$allocator@N@std@@@std@@QEAAPEANXZ
    ?_Release@?$_Uninitialized_backout_al@V?$allocator@Ufunction_call@detail@pybind11@@@std@@@std@@QEAAPEAUfunction_call@detail@pybind11@@XZ
    ?_Release@_Fake_proxy_ptr_impl@std@@QEAAXXZ
    ?_Swap_proxy_and_iterators@_Container_base0@std@@QEAAXAEAU12@@Z
    ?_Swap_val@?$_Vector_val@U?$_Simple_types@I@std@@@std@@QEAAXAEAV12@@Z
    ?_Switch_to_buf@_Bxty@?$_String_val@U?$_Simple_types@D@std@@@std@@QEAAXXZ
    ?_Take_contents@?$_Vector_val@U?$_Simple_types@PEAU_object@@@std@@@std@@QEAAXAEAV12@@Z
    ?_Take_contents@?$basic_string@DU?$char_traits@D@std@@V?$allocator@D@2@@std@@AEAAXAEAV12@@Z
    ?_Throw_bad_array_new_length@std@@YAXXZ
    ?_Tidy@?$_Hash_vec@V?$allocator@V?$_List_unchecked_const_iterator@V?$_List_val@U?$_List_simple_types@PEAU_object@@@std@@@std@@U_Iterator_base0@2@@std@@@std@@@std@@QEAAXXZ
    ?_Tidy@?$_Hash_vec@V?$allocator@V?$_List_unchecked_const_iterator@V?$_List_val@U?$_List_simple_types@U?$pair@PEBU_object@@PEBD@std@@@std@@@std@@U_Iterator_base0@2@@std@@@std@@@std@@QEAAXXZ
    ?_Tidy@?$_Hash_vec@V?$allocator@V?$_List_unchecked_iterator@V?$_List_val@U?$_List_simple_types@U?$pair@$$CBV?$basic_string@DU?$char_traits@D@std@@V?$allocator@D@2@@std@@PEAX@std@@@std@@@std@@@std@@@std@@@std@@QEAAXXZ
    ?_Tidy@?$_Hash_vec@V?$allocator@V?$_List_unchecked_iterator@V?$_List_val@U?$_List_simple_types@U?$pair@$$CBVtype_index@std@@PEAUtype_info@detail@pybind11@@@std@@@std@@@std@@@std@@@std@@@std@@QEAAXXZ
    ?_Tidy@?$_Hash_vec@V?$allocator@V?$_List_unchecked_iterator@V?$_List_val@U?$_List_simple_types@U?$pair@$$CBVtype_index@std@@V?$vector@P6A_NPEAU_object@@AEAPEAX@ZV?$allocator@P6A_NPEAU_object@@AEAPEAX@Z@std@@@2@@std@@@std@@@std@@@std@@@std@@@std@@QEAAXXZ
    ?_Tidy@?$_Hash_vec@V?$allocator@V?$_List_unchecked_iterator@V?$_List_val@U?$_List_simple_types@U?$pair@QEAU_typeobject@@V?$vector@PEAUtype_info@detail@pybind11@@V?$allocator@PEAUtype_info@detail@pybind11@@@std@@@std@@@std@@@std@@@std@@@std@@@std@@@std@@QEAAXXZ
    ?_Tidy@?$_Hash_vec@V?$allocator@V?$_List_unchecked_iterator@V?$_List_val@U?$_List_simple_types@U?$pair@QEBU_object@@V?$vector@PEAU_object@@V?$allocator@PEAU_object@@@std@@@std@@@std@@@std@@@std@@@std@@@std@@@std@@QEAAXXZ
    ?_Tidy@?$_Hash_vec@V?$allocator@V?$_List_unchecked_iterator@V?$_List_val@U?$_List_simple_types@U?$pair@QEBXPEAUinstance@detail@pybind11@@@std@@@std@@@std@@@std@@@std@@@std@@QEAAXXZ
    ?_Tidy@?$list@PEAU_object@@V?$allocator@PEAU_object@@@std@@@std@@AEAAXXZ
    ?_Tidy@?$list@U?$pair@$$CBV?$basic_string@DU?$char_traits@D@std@@V?$allocator@D@2@@std@@PEAX@std@@V?$allocator@U?$pair@$$CBV?$basic_string@DU?$char_traits@D@std@@V?$allocator@D@2@@std@@PEAX@std@@@2@@std@@AEAAXXZ
    ?_Tidy@?$list@U?$pair@$$CBVtype_index@std@@PEAUtype_info@detail@pybind11@@@std@@V?$allocator@U?$pair@$$CBVtype_index@std@@PEAUtype_info@detail@pybind11@@@std@@@2@@std@@AEAAXXZ
    ?_Tidy@?$list@U?$pair@$$CBVtype_index@std@@V?$vector@P6A_NPEAU_object@@AEAPEAX@ZV?$allocator@P6A_NPEAU_object@@AEAPEAX@Z@std@@@2@@std@@V?$allocator@U?$pair@$$CBVtype_index@std@@V?$vector@P6A_NPEAU_object@@AEAPEAX@ZV?$allocator@P6A_NPEAU_object@@AEAPEAX@Z@std@@@2@@std@@@2@@std@@AEAAXXZ
    ?_Tidy@?$list@U?$pair@PEBU_object@@PEBD@std@@V?$allocator@U?$pair@PEBU_object@@PEBD@std@@@2@@std@@AEAAXXZ
    ?_Tidy@?$list@U?$pair@QEAU_typeobject@@V?$vector@PEAUtype_info@detail@pybind11@@V?$allocator@PEAUtype_info@detail@pybind11@@@std@@@std@@@std@@V?$allocator@U?$pair@QEAU_typeobject@@V?$vector@PEAUtype_info@detail@pybind11@@V?$allocator@PEAUtype_info@detail@pybind11@@@std@@@std@@@std@@@2@@std@@AEAAXXZ
    ?_Tidy@?$list@U?$pair@QEBU_object@@V?$vector@PEAU_object@@V?$allocator@PEAU_object@@@std@@@std@@@std@@V?$allocator@U?$pair@QEBU_object@@V?$vector@PEAU_object@@V?$allocator@PEAU_object@@@std@@@std@@@std@@@2@@std@@AEAAXXZ
    ?_Tidy@?$list@U?$pair@QEBXPEAUinstance@detail@pybind11@@@std@@V?$allocator@U?$pair@QEBXPEAUinstance@detail@pybind11@@@std@@@2@@std@@AEAAXXZ
    ?_Tidy@?$vector@IV?$allocator@I@std@@@std@@AEAAXXZ
    ?_Tidy@?$vector@NV?$allocator@N@std@@@std@@AEAAXXZ
    ?_Tidy@?$vector@P6APEAU_object@@PEAU1@PEAU_typeobject@@@ZV?$allocator@P6APEAU_object@@PEAU1@PEAU_typeobject@@@Z@std@@@std@@AEAAXXZ
    ?_Tidy@?$vector@P6A_NPEAU_object@@AEAPEAX@ZV?$allocator@P6A_NPEAU_object@@AEAPEAX@Z@std@@@std@@AEAAXXZ
    ?_Tidy@?$vector@PEADV?$allocator@PEAD@std@@@std@@AEAAXXZ
    ?_Tidy@?$vector@PEAU_object@@V?$allocator@PEAU_object@@@std@@@std@@AEAAXXZ
    ?_Tidy@?$vector@PEAU_typeobject@@V?$allocator@PEAU_typeobject@@@std@@@std@@AEAAXXZ
    ?_Tidy@?$vector@PEAUtype_info@detail@pybind11@@V?$allocator@PEAUtype_info@detail@pybind11@@@std@@@std@@AEAAXXZ
    ?_Tidy@?$vector@U?$pair@PEBVtype_info@@P6APEAXPEAX@Z@std@@V?$allocator@U?$pair@PEBVtype_info@@P6APEAXPEAX@Z@std@@@2@@std@@AEAAXXZ
    ?_Tidy@?$vector@Uargument_record@detail@pybind11@@V?$allocator@Uargument_record@detail@pybind11@@@std@@@std@@AEAAXXZ
    ?_Tidy@?$vector@Ufunction_call@detail@pybind11@@V?$allocator@Ufunction_call@detail@pybind11@@@std@@@std@@AEAAXXZ
    ?_Tidy@?$vector@Vhandle@pybind11@@V?$allocator@Vhandle@pybind11@@@std@@@std@@AEAAXXZ
    ?_Tidy_deallocate@?$basic_string@DU?$char_traits@D@std@@V?$allocator@D@2@@std@@AEAAXXZ
    ?_Trim@?$vector@_NV?$allocator@_N@std@@@std@@QEAAX_K@Z
    ?_Unchecked_begin@?$_Hash@V?$_Umap_traits@PEAU_typeobject@@V?$vector@PEAUtype_info@detail@pybind11@@V?$allocator@PEAUtype_info@detail@pybind11@@@std@@@std@@V?$_Uhash_compare@PEAU_typeobject@@U?$hash@PEAU_typeobject@@@std@@U?$equal_to@PEAU_typeobject@@@3@@3@V?$allocator@U?$pair@QEAU_typeobject@@V?$vector@PEAUtype_info@detail@pybind11@@V?$allocator@PEAUtype_info@detail@pybind11@@@std@@@std@@@std@@@3@$0A@@std@@@std@@QEAA?AV?$_List_unchecked_iterator@V?$_List_val@U?$_List_simple_types@U?$pair@QEAU_typeobject@@V?$vector@PEAUtype_info@detail@pybind11@@V?$allocator@PEAUtype_info@detail@pybind11@@@std@@@std@@@std@@@std@@@std@@@2@XZ
    ?_Unchecked_begin@?$list@U?$pair@QEAU_typeobject@@V?$vector@PEAUtype_info@detail@pybind11@@V?$allocator@PEAUtype_info@detail@pybind11@@@std@@@std@@@std@@V?$allocator@U?$pair@QEAU_typeobject@@V?$vector@PEAUtype_info@detail@pybind11@@V?$allocator@PEAUtype_info@detail@pybind11@@@std@@@std@@@std@@@2@@std@@QEAA?AV?$_List_unchecked_iterator@V?$_List_val@U?$_List_simple_types@U?$pair@QEAU_typeobject@@V?$vector@PEAUtype_info@detail@pybind11@@V?$allocator@PEAUtype_info@detail@pybind11@@@std@@@std@@@std@@@std@@@std@@@2@XZ
    ?_Unchecked_end@?$_Hash@V?$_Umap_traits@PEAU_typeobject@@V?$vector@PEAUtype_info@detail@pybind11@@V?$allocator@PEAUtype_info@detail@pybind11@@@std@@@std@@V?$_Uhash_compare@PEAU_typeobject@@U?$hash@PEAU_typeobject@@@std@@U?$equal_to@PEAU_typeobject@@@3@@3@V?$allocator@U?$pair@QEAU_typeobject@@V?$vector@PEAUtype_info@detail@pybind11@@V?$allocator@PEAUtype_info@detail@pybind11@@@std@@@std@@@std@@@3@$0A@@std@@@std@@QEAA?AV?$_List_unchecked_iterator@V?$_List_val@U?$_List_simple_types@U?$pair@QEAU_typeobject@@V?$vector@PEAUtype_info@detail@pybind11@@V?$allocator@PEAUtype_info@detail@pybind11@@@std@@@std@@@std@@@std@@@std@@@2@XZ
    ?_Unchecked_end@?$_Hash@V?$_Umap_traits@PEBXPEAUinstance@detail@pybind11@@V?$_Uhash_compare@PEBXU?$hash@PEBX@std@@U?$equal_to@PEBX@2@@std@@V?$allocator@U?$pair@QEBXPEAUinstance@detail@pybind11@@@std@@@5@$00@std@@@std@@QEBA?AV?$_List_unchecked_const_iterator@V?$_List_val@U?$_List_simple_types@U?$pair@QEBXPEAUinstance@detail@pybind11@@@std@@@std@@@std@@U_Iterator_base0@2@@2@XZ
    ?_Unchecked_end@?$list@PEAU_object@@V?$allocator@PEAU_object@@@std@@@std@@QEAA?AV?$_List_unchecked_iterator@V?$_List_val@U?$_List_simple_types@PEAU_object@@@std@@@std@@@2@XZ
    ?_Unchecked_end@?$list@U?$pair@$$CBV?$basic_string@DU?$char_traits@D@std@@V?$allocator@D@2@@std@@PEAX@std@@V?$allocator@U?$pair@$$CBV?$basic_string@DU?$char_traits@D@std@@V?$allocator@D@2@@std@@PEAX@std@@@2@@std@@QEAA?AV?$_List_unchecked_iterator@V?$_List_val@U?$_List_simple_types@U?$pair@$$CBV?$basic_string@DU?$char_traits@D@std@@V?$allocator@D@2@@std@@PEAX@std@@@std@@@std@@@2@XZ
    ?_Unchecked_end@?$list@U?$pair@$$CBVtype_index@std@@PEAUtype_info@detail@pybind11@@@std@@V?$allocator@U?$pair@$$CBVtype_index@std@@PEAUtype_info@detail@pybind11@@@std@@@2@@std@@QEAA?AV?$_List_unchecked_iterator@V?$_List_val@U?$_List_simple_types@U?$pair@$$CBVtype_index@std@@PEAUtype_info@detail@pybind11@@@std@@@std@@@std@@@2@XZ
    ?_Unchecked_end@?$list@U?$pair@$$CBVtype_index@std@@V?$vector@P6A_NPEAU_object@@AEAPEAX@ZV?$allocator@P6A_NPEAU_object@@AEAPEAX@Z@std@@@2@@std@@V?$allocator@U?$pair@$$CBVtype_index@std@@V?$vector@P6A_NPEAU_object@@AEAPEAX@ZV?$allocator@P6A_NPEAU_object@@AEAPEAX@Z@std@@@2@@std@@@2@@std@@QEAA?AV?$_List_unchecked_iterator@V?$_List_val@U?$_List_simple_types@U?$pair@$$CBVtype_index@std@@V?$vector@P6A_NPEAU_object@@AEAPEAX@ZV?$allocator@P6A_NPEAU_object@@AEAPEAX@Z@std@@@2@@std@@@std@@@std@@@2@XZ
    ?_Unchecked_end@?$list@U?$pair@PEBU_object@@PEBD@std@@V?$allocator@U?$pair@PEBU_object@@PEBD@std@@@2@@std@@QEAA?AV?$_List_unchecked_iterator@V?$_List_val@U?$_List_simple_types@U?$pair@PEBU_object@@PEBD@std@@@std@@@std@@@2@XZ
    ?_Unchecked_end@?$list@U?$pair@QEAU_typeobject@@V?$vector@PEAUtype_info@detail@pybind11@@V?$allocator@PEAUtype_info@detail@pybind11@@@std@@@std@@@std@@V?$allocator@U?$pair@QEAU_typeobject@@V?$vector@PEAUtype_info@detail@pybind11@@V?$allocator@PEAUtype_info@detail@pybind11@@@std@@@std@@@std@@@2@@std@@QEAA?AV?$_List_unchecked_iterator@V?$_List_val@U?$_List_simple_types@U?$pair@QEAU_typeobject@@V?$vector@PEAUtype_info@detail@pybind11@@V?$allocator@PEAUtype_info@detail@pybind11@@@std@@@std@@@std@@@std@@@std@@@2@XZ
    ?_Unchecked_end@?$list@U?$pair@QEBU_object@@V?$vector@PEAU_object@@V?$allocator@PEAU_object@@@std@@@std@@@std@@V?$allocator@U?$pair@QEBU_object@@V?$vector@PEAU_object@@V?$allocator@PEAU_object@@@std@@@std@@@std@@@2@@std@@QEAA?AV?$_List_unchecked_iterator@V?$_List_val@U?$_List_simple_types@U?$pair@QEBU_object@@V?$vector@PEAU_object@@V?$allocator@PEAU_object@@@std@@@std@@@std@@@std@@@std@@@2@XZ
    ?_Unchecked_end@?$list@U?$pair@QEBXPEAUinstance@detail@pybind11@@@std@@V?$allocator@U?$pair@QEBXPEAUinstance@detail@pybind11@@@std@@@2@@std@@QEAA?AV?$_List_unchecked_iterator@V?$_List_val@U?$_List_simple_types@U?$pair@QEBXPEAUinstance@detail@pybind11@@@std@@@std@@@std@@@2@XZ
    ?_Unchecked_end@?$list@U?$pair@QEBXPEAUinstance@detail@pybind11@@@std@@V?$allocator@U?$pair@QEBXPEAUinstance@detail@pybind11@@@std@@@2@@std@@QEBA?AV?$_List_unchecked_const_iterator@V?$_List_val@U?$_List_simple_types@U?$pair@QEBXPEAUinstance@detail@pybind11@@@std@@@std@@@std@@U_Iterator_base0@2@@2@XZ
    ?_Unchecked_erase@?$_Hash@V?$_Umap_traits@PEAU_typeobject@@V?$vector@PEAUtype_info@detail@pybind11@@V?$allocator@PEAUtype_info@detail@pybind11@@@std@@@std@@V?$_Uhash_compare@PEAU_typeobject@@U?$hash@PEAU_typeobject@@@std@@U?$equal_to@PEAU_typeobject@@@3@@3@V?$allocator@U?$pair@QEAU_typeobject@@V?$vector@PEAUtype_info@detail@pybind11@@V?$allocator@PEAUtype_info@detail@pybind11@@@std@@@std@@@std@@@3@$0A@@std@@@std@@AEAAPEAU?$_List_node@U?$pair@QEAU_typeobject@@V?$vector@PEAUtype_info@detail@pybind11@@V?$allocator@PEAUtype_info@detail@pybind11@@@std@@@std@@@std@@PEAX@2@PEAU32@QEAU32@@Z
    ?_Unchecked_erase@?$_Hash@V?$_Umap_traits@PEBU_object@@V?$vector@PEAU_object@@V?$allocator@PEAU_object@@@std@@@std@@V?$_Uhash_compare@PEBU_object@@U?$hash@PEBU_object@@@std@@U?$equal_to@PEBU_object@@@3@@3@V?$allocator@U?$pair@QEBU_object@@V?$vector@PEAU_object@@V?$allocator@PEAU_object@@@std@@@std@@@std@@@3@$0A@@std@@@std@@AEAAPEAU?$_List_node@U?$pair@QEBU_object@@V?$vector@PEAU_object@@V?$allocator@PEAU_object@@@std@@@std@@@std@@PEAX@2@PEAU32@@Z
    ?_Unchecked_erase@?$_Hash@V?$_Umap_traits@PEBXPEAUinstance@detail@pybind11@@V?$_Uhash_compare@PEBXU?$hash@PEBX@std@@U?$equal_to@PEBX@2@@std@@V?$allocator@U?$pair@QEBXPEAUinstance@detail@pybind11@@@std@@@5@$00@std@@@std@@AEAAPEAU?$_List_node@U?$pair@QEBXPEAUinstance@detail@pybind11@@@std@@PEAX@2@PEAU32@@Z
    ?_Unchecked_erase@?$_Hash@V?$_Uset_traits@U?$pair@PEBU_object@@PEBD@std@@V?$_Uhash_compare@U?$pair@PEBU_object@@PEBD@std@@Uoverride_hash@detail@pybind11@@U?$equal_to@U?$pair@PEBU_object@@PEBD@std@@@2@@2@V?$allocator@U?$pair@PEBU_object@@PEBD@std@@@2@$0A@@std@@@std@@AEAAPEAU?$_List_node@U?$pair@PEBU_object@@PEBD@std@@PEAX@2@PEAU32@@Z
    ?_Unchecked_erase@?$list@U?$pair@$$CBVtype_index@std@@PEAUtype_info@detail@pybind11@@@std@@V?$allocator@U?$pair@$$CBVtype_index@std@@PEAUtype_info@detail@pybind11@@@std@@@2@@std@@AEAAPEAU?$_List_node@U?$pair@$$CBVtype_index@std@@PEAUtype_info@detail@pybind11@@@std@@PEAX@2@QEAU32@@Z
    ?_Unchecked_erase@?$list@U?$pair@$$CBVtype_index@std@@V?$vector@P6A_NPEAU_object@@AEAPEAX@ZV?$allocator@P6A_NPEAU_object@@AEAPEAX@Z@std@@@2@@std@@V?$allocator@U?$pair@$$CBVtype_index@std@@V?$vector@P6A_NPEAU_object@@AEAPEAX@ZV?$allocator@P6A_NPEAU_object@@AEAPEAX@Z@std@@@2@@std@@@2@@std@@AEAAPEAU?$_List_node@U?$pair@$$CBVtype_index@std@@V?$vector@P6A_NPEAU_object@@AEAPEAX@ZV?$allocator@P6A_NPEAU_object@@AEAPEAX@Z@std@@@2@@std@@PEAX@2@QEAU32@@Z
    ?_Unchecked_erase@?$list@U?$pair@PEBU_object@@PEBD@std@@V?$allocator@U?$pair@PEBU_object@@PEBD@std@@@2@@std@@AEAAPEAU?$_List_node@U?$pair@PEBU_object@@PEBD@std@@PEAX@2@QEAU32@@Z
    ?_Unchecked_erase@?$list@U?$pair@QEAU_typeobject@@V?$vector@PEAUtype_info@detail@pybind11@@V?$allocator@PEAUtype_info@detail@pybind11@@@std@@@std@@@std@@V?$allocator@U?$pair@QEAU_typeobject@@V?$vector@PEAUtype_info@detail@pybind11@@V?$allocator@PEAUtype_info@detail@pybind11@@@std@@@std@@@std@@@2@@std@@AEAAPEAU?$_List_node@U?$pair@QEAU_typeobject@@V?$vector@PEAUtype_info@detail@pybind11@@V?$allocator@PEAUtype_info@detail@pybind11@@@std@@@std@@@std@@PEAX@2@QEAU32@@Z
    ?_Unchecked_erase@?$list@U?$pair@QEBU_object@@V?$vector@PEAU_object@@V?$allocator@PEAU_object@@@std@@@std@@@std@@V?$allocator@U?$pair@QEBU_object@@V?$vector@PEAU_object@@V?$allocator@PEAU_object@@@std@@@std@@@std@@@2@@std@@AEAAPEAU?$_List_node@U?$pair@QEBU_object@@V?$vector@PEAU_object@@V?$allocator@PEAU_object@@@std@@@std@@@std@@PEAX@2@QEAU32@@Z
    ?_Unchecked_erase@?$list@U?$pair@QEBXPEAUinstance@detail@pybind11@@@std@@V?$allocator@U?$pair@QEBXPEAUinstance@detail@pybind11@@@std@@@2@@std@@AEAAPEAU?$_List_node@U?$pair@QEBXPEAUinstance@detail@pybind11@@@std@@PEAX@2@QEAU32@@Z
    ?_Unchecked_splice@?$_List_val@U?$_List_simple_types@U?$pair@QEAU_typeobject@@V?$vector@PEAUtype_info@detail@pybind11@@V?$allocator@PEAUtype_info@detail@pybind11@@@std@@@std@@@std@@@std@@@std@@SAPEAU?$_List_node@U?$pair@QEAU_typeobject@@V?$vector@PEAUtype_info@detail@pybind11@@V?$allocator@PEAUtype_info@detail@pybind11@@@std@@@std@@@std@@PEAX@2@QEAU32@00@Z
    ?_Verify_offset@?$_Vector_const_iterator@V?$_Vector_val@U?$_Simple_types@I@std@@@std@@@std@@QEBAX_J@Z
    ?_Xlen@?$vector@_NV?$allocator@_N@std@@@std@@SAXXZ
    ?_Xlen_string@std@@YAXXZ
    ?_Xlength@?$vector@IV?$allocator@I@std@@@std@@CAXXZ
    ?_Xlength@?$vector@NV?$allocator@N@std@@@std@@CAXXZ
    ?_Xlength@?$vector@PEADV?$allocator@PEAD@std@@@std@@CAXXZ
    ?_Xlength@?$vector@PEAU_typeobject@@V?$allocator@PEAU_typeobject@@@std@@@std@@CAXXZ
    ?_Xlength@?$vector@PEAUtype_info@detail@pybind11@@V?$allocator@PEAUtype_info@detail@pybind11@@@std@@@std@@CAXXZ
    ?_Xlength@?$vector@Uargument_record@detail@pybind11@@V?$allocator@Uargument_record@detail@pybind11@@@std@@@std@@CAXXZ
    ?_Xlength@?$vector@Ufunction_call@detail@pybind11@@V?$allocator@Ufunction_call@detail@pybind11@@@std@@@std@@CAXXZ
    ?_Xlength@?$vector@Vhandle@pybind11@@V?$allocator@Vhandle@pybind11@@@std@@@std@@CAXXZ
    ?_Xran@?$_String_val@U?$_Simple_types@D@std@@@std@@SAXXZ
    ?__invoke@<lambda_1>@?0??initialize_generic@cpp_function@pybind11@@IEAAX$$QEAV?$unique_ptr@Ufunction_record@detail@pybind11@@UInitializingFunctionRecordDeleter@cpp_function@3@@std@@PEBDPEBQEBVtype_info@@_K@Z@CA?A?<auto>@@PEAX@Z
    ?__invoke@<lambda_1>@?0??initialize_with_void_ptr_destructor@capsule@pybind11@@AEAAXPEBXPEBDP6AXPEAX@Z@Z@CA?A?<auto>@@PEAU_object@@@Z
    ?__invoke@<lambda_3>@?0???$initialize@AEAP6A?BV?$tuple@V?$vector@NV?$allocator@N@std@@@std@@V12@@std@@JNNNNNNNNNJNJJNN@Z$$CBV12@JNNNNNNNNNJNJJNN$$ZUname@pybind11@@Uscope@4@Usibling@4@$$BY0GBH@DUarg@4@U74@U74@U74@U74@U74@U74@U74@U74@U74@U74@U74@U74@U74@U74@U74@@cpp_function@pybind11@@IEAAXAEAP6A?BV?$tuple@V?$vector@NV?$allocator@N@std@@@std@@V12@@std@@JNNNNNNNNNJNJJNN@ZP6A?BV45@JNNNNNNNNNJNJJNN@ZAEBUname@3@AEBUscope@3@AEBUsibling@3@AEAY0GBH@$$CBDAEBUarg@3@666666666666666@Z@CA@AEAUfunction_call@detail@3@@Z
    ?__invoke@<lambda_3>@?0???$initialize@AEAP6A?BV?$tuple@V?$vector@NV?$allocator@N@std@@@std@@V12@@std@@NNNNNNNNJNN@Z$$CBV12@NNNNNNNNJNN$$ZUname@pybind11@@Uscope@4@Usibling@4@$$BY0DKL@DUarg@4@U74@U74@U74@U74@U74@U74@U74@U74@U74@U74@@cpp_function@pybind11@@IEAAXAEAP6A?BV?$tuple@V?$vector@NV?$allocator@N@std@@@std@@V12@@std@@NNNNNNNNJNN@ZP6A?BV45@NNNNNNNNJNN@ZAEBUname@3@AEBUscope@3@AEBUsibling@3@AEAY0DKL@$$CBDAEBUarg@3@6666666666@Z@CA@AEAUfunction_call@detail@3@@Z
    ?__invoke@<lambda_3>@?0???$initialize@V<lambda_2>@?0??all_type_info_get_cache@detail@pybind11@@YA?AU?$pair@V?$_List_iterator@V?$_List_val@U?$_List_simple_types@U?$pair@QEAU_typeobject@@V?$vector@PEAUtype_info@detail@pybind11@@V?$allocator@PEAUtype_info@detail@pybind11@@@std@@@std@@@std@@@std@@@std@@@std@@_N@std@@PEAU_typeobject@@@Z@XVhandle@4@$$Z$$V@cpp_function@pybind11@@IEAAX$$QEAV<lambda_2>@?0??all_type_info_get_cache@detail@3@YA?AU?$pair@V?$_List_iterator@V?$_List_val@U?$_List_simple_types@U?$pair@QEAU_typeobject@@V?$vector@PEAUtype_info@detail@pybind11@@V?$allocator@PEAUtype_info@detail@pybind11@@@std@@@std@@@std@@@std@@@std@@@std@@_N@std@@PEAU_typeobject@@@Z@P6AXVhandle@3@@Z@Z@CA@AEAUfunction_call@63@@Z
    ?add_object@module_@pybind11@@QEAAXPEBDVhandle@2@_N@Z
    ?all_type_info@detail@pybind11@@YAAEBV?$vector@PEAUtype_info@detail@pybind11@@V?$allocator@PEAUtype_info@detail@pybind11@@@std@@@std@@PEAU_typeobject@@@Z
    ?all_type_info_add_base_most_derived_first@detail@pybind11@@YAXAEAV?$vector@PEAUtype_info@detail@pybind11@@V?$allocator@PEAUtype_info@detail@pybind11@@@std@@@std@@PEAUtype_info@12@@Z
    ?all_type_info_get_cache@detail@pybind11@@YA?AU?$pair@V?$_List_iterator@V?$_List_val@U?$_List_simple_types@U?$pair@QEAU_typeobject@@V?$vector@PEAUtype_info@detail@pybind11@@V?$allocator@PEAUtype_info@detail@pybind11@@@std@@@std@@@std@@@std@@@std@@@std@@_N@std@@PEAU_typeobject@@@Z
    ?all_type_info_populate@detail@pybind11@@YAXPEAU_typeobject@@AEAV?$vector@PEAUtype_info@detail@pybind11@@V?$allocator@PEAUtype_info@detail@pybind11@@@std@@@std@@@Z
    ?allocate@?$allocator@D@std@@QEAAPEAD_K@Z
    ?allocate@?$allocator@I@std@@QEAAPEAI_K@Z
    ?allocate@?$allocator@N@std@@QEAAPEAN_K@Z
    ?allocate@?$allocator@PEAD@std@@QEAAPEAPEAD_K@Z
    ?allocate@?$allocator@PEAU_typeobject@@@std@@QEAAPEAPEAU_typeobject@@_K@Z
    ?allocate@?$allocator@PEAUtype_info@detail@pybind11@@@std@@QEAAPEAPEAUtype_info@detail@pybind11@@_K@Z
    ?allocate@?$allocator@U?$_Flist_node@P6AXVexception_ptr@std@@@ZPEAX@std@@@std@@QEAAPEAU?$_Flist_node@P6AXVexception_ptr@std@@@ZPEAX@2@_K@Z
    ?allocate@?$allocator@U?$_List_node@PEAU_object@@PEAX@std@@@std@@QEAAPEAU?$_List_node@PEAU_object@@PEAX@2@_K@Z
    ?allocate@?$allocator@U?$_List_node@U?$pair@$$CBV?$basic_string@DU?$char_traits@D@std@@V?$allocator@D@2@@std@@PEAX@std@@PEAX@std@@@std@@QEAAPEAU?$_List_node@U?$pair@$$CBV?$basic_string@DU?$char_traits@D@std@@V?$allocator@D@2@@std@@PEAX@std@@PEAX@2@_K@Z
    ?allocate@?$allocator@U?$_List_node@U?$pair@$$CBVtype_index@std@@PEAUtype_info@detail@pybind11@@@std@@PEAX@std@@@std@@QEAAPEAU?$_List_node@U?$pair@$$CBVtype_index@std@@PEAUtype_info@detail@pybind11@@@std@@PEAX@2@_K@Z
    ?allocate@?$allocator@U?$_List_node@U?$pair@$$CBVtype_index@std@@V?$vector@P6A_NPEAU_object@@AEAPEAX@ZV?$allocator@P6A_NPEAU_object@@AEAPEAX@Z@std@@@2@@std@@PEAX@std@@@std@@QEAAPEAU?$_List_node@U?$pair@$$CBVtype_index@std@@V?$vector@P6A_NPEAU_object@@AEAPEAX@ZV?$allocator@P6A_NPEAU_object@@AEAPEAX@Z@std@@@2@@std@@PEAX@2@_K@Z
    ?allocate@?$allocator@U?$_List_node@U?$pair@PEBU_object@@PEBD@std@@PEAX@std@@@std@@QEAAPEAU?$_List_node@U?$pair@PEBU_object@@PEBD@std@@PEAX@2@_K@Z
    ?allocate@?$allocator@U?$_List_node@U?$pair@QEAU_typeobject@@V?$vector@PEAUtype_info@detail@pybind11@@V?$allocator@PEAUtype_info@detail@pybind11@@@std@@@std@@@std@@PEAX@std@@@std@@QEAAPEAU?$_List_node@U?$pair@QEAU_typeobject@@V?$vector@PEAUtype_info@detail@pybind11@@V?$allocator@PEAUtype_info@detail@pybind11@@@std@@@std@@@std@@PEAX@2@_K@Z
    ?allocate@?$allocator@U?$_List_node@U?$pair@QEBU_object@@V?$vector@PEAU_object@@V?$allocator@PEAU_object@@@std@@@std@@@std@@PEAX@std@@@std@@QEAAPEAU?$_List_node@U?$pair@QEBU_object@@V?$vector@PEAU_object@@V?$allocator@PEAU_object@@@std@@@std@@@std@@PEAX@2@_K@Z
    ?allocate@?$allocator@U?$_List_node@U?$pair@QEBXPEAUinstance@detail@pybind11@@@std@@PEAX@std@@@std@@QEAAPEAU?$_List_node@U?$pair@QEBXPEAUinstance@detail@pybind11@@@std@@PEAX@2@_K@Z
    ?allocate@?$allocator@Uargument_record@detail@pybind11@@@std@@QEAAPEAUargument_record@detail@pybind11@@_K@Z
    ?allocate@?$allocator@Ufunction_call@detail@pybind11@@@std@@QEAAPEAUfunction_call@detail@pybind11@@_K@Z
    ?allocate@?$allocator@V?$_List_unchecked_const_iterator@V?$_List_val@U?$_List_simple_types@PEAU_object@@@std@@@std@@U_Iterator_base0@2@@std@@@std@@QEAAPEAV?$_List_unchecked_const_iterator@V?$_List_val@U?$_List_simple_types@PEAU_object@@@std@@@std@@U_Iterator_base0@2@@2@_K@Z
    ?allocate@?$allocator@V?$_List_unchecked_const_iterator@V?$_List_val@U?$_List_simple_types@U?$pair@PEBU_object@@PEBD@std@@@std@@@std@@U_Iterator_base0@2@@std@@@std@@QEAAPEAV?$_List_unchecked_const_iterator@V?$_List_val@U?$_List_simple_types@U?$pair@PEBU_object@@PEBD@std@@@std@@@std@@U_Iterator_base0@2@@2@_K@Z
    ?allocate@?$allocator@V?$_List_unchecked_iterator@V?$_List_val@U?$_List_simple_types@U?$pair@$$CBV?$basic_string@DU?$char_traits@D@std@@V?$allocator@D@2@@std@@PEAX@std@@@std@@@std@@@std@@@std@@QEAAPEAV?$_List_unchecked_iterator@V?$_List_val@U?$_List_simple_types@U?$pair@$$CBV?$basic_string@DU?$char_traits@D@std@@V?$allocator@D@2@@std@@PEAX@std@@@std@@@std@@@2@_K@Z
    ?allocate@?$allocator@V?$_List_unchecked_iterator@V?$_List_val@U?$_List_simple_types@U?$pair@$$CBVtype_index@std@@PEAUtype_info@detail@pybind11@@@std@@@std@@@std@@@std@@@std@@QEAAPEAV?$_List_unchecked_iterator@V?$_List_val@U?$_List_simple_types@U?$pair@$$CBVtype_index@std@@PEAUtype_info@detail@pybind11@@@std@@@std@@@std@@@2@_K@Z
    ?allocate@?$allocator@V?$_List_unchecked_iterator@V?$_List_val@U?$_List_simple_types@U?$pair@$$CBVtype_index@std@@V?$vector@P6A_NPEAU_object@@AEAPEAX@ZV?$allocator@P6A_NPEAU_object@@AEAPEAX@Z@std@@@2@@std@@@std@@@std@@@std@@@std@@QEAAPEAV?$_List_unchecked_iterator@V?$_List_val@U?$_List_simple_types@U?$pair@$$CBVtype_index@std@@V?$vector@P6A_NPEAU_object@@AEAPEAX@ZV?$allocator@P6A_NPEAU_object@@AEAPEAX@Z@std@@@2@@std@@@std@@@std@@@2@_K@Z
    ?allocate@?$allocator@V?$_List_unchecked_iterator@V?$_List_val@U?$_List_simple_types@U?$pair@QEAU_typeobject@@V?$vector@PEAUtype_info@detail@pybind11@@V?$allocator@PEAUtype_info@detail@pybind11@@@std@@@std@@@std@@@std@@@std@@@std@@@std@@QEAAPEAV?$_List_unchecked_iterator@V?$_List_val@U?$_List_simple_types@U?$pair@QEAU_typeobject@@V?$vector@PEAUtype_info@detail@pybind11@@V?$allocator@PEAUtype_info@detail@pybind11@@@std@@@std@@@std@@@std@@@std@@@2@_K@Z
    ?allocate@?$allocator@V?$_List_unchecked_iterator@V?$_List_val@U?$_List_simple_types@U?$pair@QEBU_object@@V?$vector@PEAU_object@@V?$allocator@PEAU_object@@@std@@@std@@@std@@@std@@@std@@@std@@@std@@QEAAPEAV?$_List_unchecked_iterator@V?$_List_val@U?$_List_simple_types@U?$pair@QEBU_object@@V?$vector@PEAU_object@@V?$allocator@PEAU_object@@@std@@@std@@@std@@@std@@@std@@@2@_K@Z
    ?allocate@?$allocator@V?$_List_unchecked_iterator@V?$_List_val@U?$_List_simple_types@U?$pair@QEBXPEAUinstance@detail@pybind11@@@std@@@std@@@std@@@std@@@std@@QEAAPEAV?$_List_unchecked_iterator@V?$_List_val@U?$_List_simple_types@U?$pair@QEBXPEAUinstance@detail@pybind11@@@std@@@std@@@std@@@2@_K@Z
    ?allocate@?$allocator@Vhandle@pybind11@@@std@@QEAAPEAVhandle@pybind11@@_K@Z
    ?allocate_layout@instance@detail@pybind11@@QEAAXXZ
    ?append@?$basic_string@DU?$char_traits@D@std@@V?$allocator@D@2@@std@@QEAAAEAV12@AEBV12@@Z
    ?append@?$basic_string@DU?$char_traits@D@std@@V?$allocator@D@2@@std@@QEAAAEAV12@AEBV12@_K_K@Z
    ?append@?$basic_string@DU?$char_traits@D@std@@V?$allocator@D@2@@std@@QEAAAEAV12@QEBD@Z
    ?append@?$basic_string@DU?$char_traits@D@std@@V?$allocator@D@2@@std@@QEAAAEAV12@QEBD_K@Z
    ?append_self_arg_if_needed@detail@pybind11@@YAXPEAUfunction_record@12@@Z
    ?apply_exception_translators@detail@pybind11@@YA_NAEAV?$forward_list@P6AXVexception_ptr@std@@@ZV?$allocator@P6AXVexception_ptr@std@@@Z@2@@std@@@Z
    ?assign@?$_Narrow_char_traits@DH@std@@SAXAEADAEBD@Z
    ?assign@?$basic_string@DU?$char_traits@D@std@@V?$allocator@D@2@@std@@QEAAAEAV12@QEBD@Z
    ?assign@?$basic_string@DU?$char_traits@D@std@@V?$allocator@D@2@@std@@QEAAAEAV12@QEBD_K@Z
    ?attr@?$object_api@Vhandle@pybind11@@@detail@pybind11@@QEBA?AV?$accessor@Ustr_attr@accessor_policies@detail@pybind11@@@23@PEBD@Z
    ?begin@?$_Hash@V?$_Uset_traits@PEAU_object@@V?$_Uhash_compare@PEAU_object@@U?$hash@PEAU_object@@@std@@U?$equal_to@PEAU_object@@@3@@std@@V?$allocator@PEAU_object@@@3@$0A@@std@@@std@@QEAA?AV?$_List_const_iterator@V?$_List_val@U?$_List_simple_types@PEAU_object@@@std@@@std@@@2@XZ
    ?begin@?$_Hash@V?$_Uset_traits@U?$pair@PEBU_object@@PEBD@std@@V?$_Uhash_compare@U?$pair@PEBU_object@@PEBD@std@@Uoverride_hash@detail@pybind11@@U?$equal_to@U?$pair@PEBU_object@@PEBD@std@@@2@@2@V?$allocator@U?$pair@PEBU_object@@PEBD@std@@@2@$0A@@std@@@std@@QEAA?AV?$_List_const_iterator@V?$_List_val@U?$_List_simple_types@U?$pair@PEBU_object@@PEBD@std@@@std@@@std@@@2@XZ
    ?begin@?$array@Vobject@pybind11@@$00@std@@QEAA?AV?$_Array_iterator@Vobject@pybind11@@$00@2@XZ
    ?begin@?$array@Vobject@pybind11@@$01@std@@QEAA?AV?$_Array_iterator@Vobject@pybind11@@$01@2@XZ
    ?begin@?$forward_list@P6AXVexception_ptr@std@@@ZV?$allocator@P6AXVexception_ptr@std@@@Z@2@@std@@QEAA?AV?$_Flist_iterator@V?$_Flist_val@U?$_Flist_simple_types@P6AXVexception_ptr@std@@@Z@std@@@std@@@2@XZ
    ?begin@?$list@PEAU_object@@V?$allocator@PEAU_object@@@std@@@std@@QEAA?AV?$_List_iterator@V?$_List_val@U?$_List_simple_types@PEAU_object@@@std@@@std@@@2@XZ
    ?begin@?$list@U?$pair@PEBU_object@@PEBD@std@@V?$allocator@U?$pair@PEBU_object@@PEBD@std@@@2@@std@@QEAA?AV?$_List_iterator@V?$_List_val@U?$_List_simple_types@U?$pair@PEBU_object@@PEBD@std@@@std@@@std@@@2@XZ
    ?begin@?$vector@IV?$allocator@I@std@@@std@@QEAA?AV?$_Vector_iterator@V?$_Vector_val@U?$_Simple_types@I@std@@@std@@@2@XZ
    ?begin@?$vector@NV?$allocator@N@std@@@std@@QEBA?AV?$_Vector_const_iterator@V?$_Vector_val@U?$_Simple_types@N@std@@@std@@@2@XZ
    ?begin@?$vector@PEADV?$allocator@PEAD@std@@@std@@QEAA?AV?$_Vector_iterator@V?$_Vector_val@U?$_Simple_types@PEAD@std@@@std@@@2@XZ
    ?begin@?$vector@PEAU_object@@V?$allocator@PEAU_object@@@std@@@std@@QEAA?AV?$_Vector_iterator@V?$_Vector_val@U?$_Simple_types@PEAU_object@@@std@@@std@@@2@XZ
    ?begin@?$vector@PEAUtype_info@detail@pybind11@@V?$allocator@PEAUtype_info@detail@pybind11@@@std@@@std@@QEAA?AV?$_Vector_iterator@V?$_Vector_val@U?$_Simple_types@PEAUtype_info@detail@pybind11@@@std@@@std@@@2@XZ
    ?begin@?$vector@PEAUtype_info@detail@pybind11@@V?$allocator@PEAUtype_info@detail@pybind11@@@std@@@std@@QEBA?AV?$_Vector_const_iterator@V?$_Vector_val@U?$_Simple_types@PEAUtype_info@detail@pybind11@@@std@@@std@@@2@XZ
    ?begin@?$vector@U?$pair@PEBVtype_info@@P6APEAXPEAX@Z@std@@V?$allocator@U?$pair@PEBVtype_info@@P6APEAXPEAX@Z@std@@@2@@std@@QEAA?AV?$_Vector_iterator@V?$_Vector_val@U?$_Simple_types@U?$pair@PEBVtype_info@@P6APEAXPEAX@Z@std@@@std@@@std@@@2@XZ
    ?begin@?$vector@Uargument_record@detail@pybind11@@V?$allocator@Uargument_record@detail@pybind11@@@std@@@std@@QEAA?AV?$_Vector_iterator@V?$_Vector_val@U?$_Simple_types@Uargument_record@detail@pybind11@@@std@@@std@@@2@XZ
    ?begin@?$vector@Ufunction_call@detail@pybind11@@V?$allocator@Ufunction_call@detail@pybind11@@@std@@@std@@QEAA?AV?$_Vector_iterator@V?$_Vector_val@U?$_Simple_types@Ufunction_call@detail@pybind11@@@std@@@std@@@2@XZ
    ?begin@?$vector@_NV?$allocator@_N@std@@@std@@QEAA?AV?$_Vb_iterator@U?$_Wrap_alloc@V?$allocator@I@std@@@std@@@2@XZ
    ?begin@dict@pybind11@@QEBA?AV?$generic_iterator@Vdict_readonly@iterator_policies@detail@pybind11@@@detail@2@XZ
    ?begin@tuple@pybind11@@QEBA?AV?$generic_iterator@Vsequence_fast_readonly@iterator_policies@detail@pybind11@@@detail@2@XZ
    ?begin@values_and_holders@detail@pybind11@@QEAA?AUiterator@123@XZ
    ?bucket@?$_Hash@V?$_Umap_traits@PEAU_typeobject@@V?$vector@PEAUtype_info@detail@pybind11@@V?$allocator@PEAUtype_info@detail@pybind11@@@std@@@std@@V?$_Uhash_compare@PEAU_typeobject@@U?$hash@PEAU_typeobject@@@std@@U?$equal_to@PEAU_typeobject@@@3@@3@V?$allocator@U?$pair@QEAU_typeobject@@V?$vector@PEAUtype_info@detail@pybind11@@V?$allocator@PEAUtype_info@detail@pybind11@@@std@@@std@@@std@@@3@$0A@@std@@@std@@QEBA_KAEBQEAU_typeobject@@@Z
    ?bucket@?$_Hash@V?$_Umap_traits@PEBU_object@@V?$vector@PEAU_object@@V?$allocator@PEAU_object@@@std@@@std@@V?$_Uhash_compare@PEBU_object@@U?$hash@PEBU_object@@@std@@U?$equal_to@PEBU_object@@@3@@3@V?$allocator@U?$pair@QEBU_object@@V?$vector@PEAU_object@@V?$allocator@PEAU_object@@@std@@@std@@@std@@@3@$0A@@std@@@std@@QEBA_KAEBQEBU_object@@@Z
    ?bucket@?$_Hash@V?$_Umap_traits@PEBXPEAUinstance@detail@pybind11@@V?$_Uhash_compare@PEBXU?$hash@PEBX@std@@U?$equal_to@PEBX@2@@std@@V?$allocator@U?$pair@QEBXPEAUinstance@detail@pybind11@@@std@@@5@$00@std@@@std@@QEBA_KAEBQEBX@Z
    ?bucket@?$_Hash@V?$_Uset_traits@U?$pair@PEBU_object@@PEBD@std@@V?$_Uhash_compare@U?$pair@PEBU_object@@PEBD@std@@Uoverride_hash@detail@pybind11@@U?$equal_to@U?$pair@PEBU_object@@PEBD@std@@@2@@2@V?$allocator@U?$pair@PEBU_object@@PEBD@std@@@2@$0A@@std@@@std@@QEBA_KAEBU?$pair@PEBU_object@@PEBD@2@@Z
    ?bucket_count@?$_Hash@V?$_Umap_traits@PEAU_typeobject@@V?$vector@PEAUtype_info@detail@pybind11@@V?$allocator@PEAUtype_info@detail@pybind11@@@std@@@std@@V?$_Uhash_compare@PEAU_typeobject@@U?$hash@PEAU_typeobject@@@std@@U?$equal_to@PEAU_typeobject@@@3@@3@V?$allocator@U?$pair@QEAU_typeobject@@V?$vector@PEAUtype_info@detail@pybind11@@V?$allocator@PEAUtype_info@detail@pybind11@@@std@@@std@@@std@@@3@$0A@@std@@@std@@QEBA_KXZ
    ?c_str@?$basic_string@DU?$char_traits@D@std@@V?$allocator@D@2@@std@@QEBAPEBDXZ
    ?call@?$simple_collector@$00@detail@pybind11@@QEBA?AVobject@3@PEAU_object@@@Z
    ?capacity@?$_Hash_vec@V?$allocator@V?$_List_unchecked_const_iterator@V?$_List_val@U?$_List_simple_types@PEAU_object@@@std@@@std@@U_Iterator_base0@2@@std@@@std@@@std@@QEBA_KXZ
    ?capacity@?$_Hash_vec@V?$allocator@V?$_List_unchecked_const_iterator@V?$_List_val@U?$_List_simple_types@U?$pair@PEBU_object@@PEBD@std@@@std@@@std@@U_Iterator_base0@2@@std@@@std@@@std@@QEBA_KXZ
    ?capacity@?$_Hash_vec@V?$allocator@V?$_List_unchecked_iterator@V?$_List_val@U?$_List_simple_types@U?$pair@$$CBV?$basic_string@DU?$char_traits@D@std@@V?$allocator@D@2@@std@@PEAX@std@@@std@@@std@@@std@@@std@@@std@@QEBA_KXZ
    ?capacity@?$_Hash_vec@V?$allocator@V?$_List_unchecked_iterator@V?$_List_val@U?$_List_simple_types@U?$pair@$$CBVtype_index@std@@PEAUtype_info@detail@pybind11@@@std@@@std@@@std@@@std@@@std@@@std@@QEBA_KXZ
    ?capacity@?$_Hash_vec@V?$allocator@V?$_List_unchecked_iterator@V?$_List_val@U?$_List_simple_types@U?$pair@$$CBVtype_index@std@@V?$vector@P6A_NPEAU_object@@AEAPEAX@ZV?$allocator@P6A_NPEAU_object@@AEAPEAX@Z@std@@@2@@std@@@std@@@std@@@std@@@std@@@std@@QEBA_KXZ
    ?capacity@?$_Hash_vec@V?$allocator@V?$_List_unchecked_iterator@V?$_List_val@U?$_List_simple_types@U?$pair@QEAU_typeobject@@V?$vector@PEAUtype_info@detail@pybind11@@V?$allocator@PEAUtype_info@detail@pybind11@@@std@@@std@@@std@@@std@@@std@@@std@@@std@@@std@@QEBA_KXZ
    ?capacity@?$_Hash_vec@V?$allocator@V?$_List_unchecked_iterator@V?$_List_val@U?$_List_simple_types@U?$pair@QEBU_object@@V?$vector@PEAU_object@@V?$allocator@PEAU_object@@@std@@@std@@@std@@@std@@@std@@@std@@@std@@@std@@QEBA_KXZ
    ?capacity@?$_Hash_vec@V?$allocator@V?$_List_unchecked_iterator@V?$_List_val@U?$_List_simple_types@U?$pair@QEBXPEAUinstance@detail@pybind11@@@std@@@std@@@std@@@std@@@std@@@std@@QEBA_KXZ
    ?capacity@?$vector@IV?$allocator@I@std@@@std@@QEBA_KXZ
    ?capacity@?$vector@PEADV?$allocator@PEAD@std@@@std@@QEBA_KXZ
    ?capacity@?$vector@PEAU_typeobject@@V?$allocator@PEAU_typeobject@@@std@@@std@@QEBA_KXZ
    ?capacity@?$vector@PEAUtype_info@detail@pybind11@@V?$allocator@PEAUtype_info@detail@pybind11@@@std@@@std@@QEBA_KXZ
    ?capacity@?$vector@Uargument_record@detail@pybind11@@V?$allocator@Uargument_record@detail@pybind11@@@std@@@std@@QEBA_KXZ
    ?capacity@?$vector@Ufunction_call@detail@pybind11@@V?$allocator@Ufunction_call@detail@pybind11@@@std@@@std@@QEBA_KXZ
    ?capacity@?$vector@Vhandle@pybind11@@V?$allocator@Vhandle@pybind11@@@std@@@std@@QEBA_KXZ
    ?cast@?$pyobject_caster@Vhandle@pybind11@@@detail@pybind11@@SA?AVhandle@3@AEBV43@W4return_value_policy@3@V43@@Z
    ?cast@?$string_caster@V?$basic_string@DU?$char_traits@D@std@@V?$allocator@D@2@@std@@$0A@@detail@pybind11@@SA?AVhandle@3@AEBV?$basic_string@DU?$char_traits@D@std@@V?$allocator@D@2@@std@@W4return_value_policy@3@V43@@Z
    ?cast@?$type_caster@DX@detail@pybind11@@SA?AVhandle@3@PEBDW4return_value_policy@3@V43@@Z
    ?cast@?$void_caster@Uvoid_type@detail@pybind11@@@detail@pybind11@@SA?AVhandle@3@Uvoid_type@23@W4return_value_policy@3@V43@@Z
    ?cast_error_unable_to_convert_call_arg@pybind11@@YA?AVcast_error@1@AEBV?$basic_string@DU?$char_traits@D@std@@V?$allocator@D@2@@std@@0@Z
    ?check_@capsule@pybind11@@SA_NVhandle@2@@Z
    ?check_@dict@pybind11@@SA_NVhandle@2@@Z
    ?check_@str@pybind11@@SA_NVhandle@2@@Z
    ?check_kw_only_arg@detail@pybind11@@YAXAEBUarg@2@PEAUfunction_record@12@@Z
    ?clean_type_id@detail@pybind11@@YA?AV?$basic_string@DU?$char_traits@D@std@@V?$allocator@D@2@@std@@PEBD@Z
    ?clean_type_id@detail@pybind11@@YAXAEAV?$basic_string@DU?$char_traits@D@std@@V?$allocator@D@2@@std@@@Z
    ?clear@?$_Hash@V?$_Umap_traits@PEAU_typeobject@@V?$vector@PEAUtype_info@detail@pybind11@@V?$allocator@PEAUtype_info@detail@pybind11@@@std@@@std@@V?$_Uhash_compare@PEAU_typeobject@@U?$hash@PEAU_typeobject@@@std@@U?$equal_to@PEAU_typeobject@@@3@@3@V?$allocator@U?$pair@QEAU_typeobject@@V?$vector@PEAUtype_info@detail@pybind11@@V?$allocator@PEAUtype_info@detail@pybind11@@@std@@@std@@@std@@@3@$0A@@std@@@std@@QEAAXXZ
    ?clear@?$basic_string@DU?$char_traits@D@std@@V?$allocator@D@2@@std@@QEAAXXZ
    ?clear@?$forward_list@P6AXVexception_ptr@std@@@ZV?$allocator@P6AXVexception_ptr@std@@@Z@2@@std@@QEAAXXZ
    ?clear@?$forward_list@V?$basic_string@DU?$char_traits@D@std@@V?$allocator@D@2@@std@@V?$allocator@V?$basic_string@DU?$char_traits@D@std@@V?$allocator@D@2@@std@@@2@@std@@QEAAXXZ
    ?clear@?$list@U?$pair@QEAU_typeobject@@V?$vector@PEAUtype_info@detail@pybind11@@V?$allocator@PEAUtype_info@detail@pybind11@@@std@@@std@@@std@@V?$allocator@U?$pair@QEAU_typeobject@@V?$vector@PEAUtype_info@detail@pybind11@@V?$allocator@PEAUtype_info@detail@pybind11@@@std@@@std@@@std@@@2@@std@@QEAAXXZ
    ?clear@?$vector@PEADV?$allocator@PEAD@std@@@std@@QEAAXXZ
    ?clear_instance@detail@pybind11@@YAXPEAU_object@@@Z
    ?clear_patients@detail@pybind11@@YAXPEAU_object@@@Z
    ?copy@?$_Char_traits@DH@std@@SAPEADQEADQEBD_K@Z
    ?counter@?1??inc_ref_counter@handle@pybind11@@CA_K_K@Z@4_KA
    ?create_extension_module@module_@pybind11@@SA?AV12@PEBD0PEAUPyModuleDef@@Vmod_gil_not_used@2@@Z
    ?current_exception@std@@YA?AVexception_ptr@1@XZ
    ?data@?$array@PEBVtype_info@@$00@std@@QEBAPEBQEBVtype_info@@XZ
    ?data@?$basic_string@DU?$char_traits@D@std@@V?$allocator@D@2@@std@@QEBAPEBDXZ
    ?data@?$vector@IV?$allocator@I@std@@@std@@QEAAPEAIXZ
    ?data@?$vector@NV?$allocator@N@std@@@std@@QEAAPEANXZ
    ?deallocate@?$_Default_allocator_traits@V?$allocator@U?$_List_node@PEAU_object@@PEAX@std@@@std@@@std@@SAXAEAV?$allocator@U?$_List_node@PEAU_object@@PEAX@std@@@2@QEAU?$_List_node@PEAU_object@@PEAX@2@_K@Z
    ?deallocate@?$_Default_allocator_traits@V?$allocator@U?$_List_node@U?$pair@$$CBV?$basic_string@DU?$char_traits@D@std@@V?$allocator@D@2@@std@@PEAX@std@@PEAX@std@@@std@@@std@@SAXAEAV?$allocator@U?$_List_node@U?$pair@$$CBV?$basic_string@DU?$char_traits@D@std@@V?$allocator@D@2@@std@@PEAX@std@@PEAX@std@@@2@QEAU?$_List_node@U?$pair@$$CBV?$basic_string@DU?$char_traits@D@std@@V?$allocator@D@2@@std@@PEAX@std@@PEAX@2@_K@Z
    ?deallocate@?$_Default_allocator_traits@V?$allocator@U?$_List_node@U?$pair@$$CBVtype_index@std@@PEAUtype_info@detail@pybind11@@@std@@PEAX@std@@@std@@@std@@SAXAEAV?$allocator@U?$_List_node@U?$pair@$$CBVtype_index@std@@PEAUtype_info@detail@pybind11@@@std@@PEAX@std@@@2@QEAU?$_List_node@U?$pair@$$CBVtype_index@std@@PEAUtype_info@detail@pybind11@@@std@@PEAX@2@_K@Z
    ?deallocate@?$_Default_allocator_traits@V?$allocator@U?$_List_node@U?$pair@$$CBVtype_index@std@@V?$vector@P6A_NPEAU_object@@AEAPEAX@ZV?$allocator@P6A_NPEAU_object@@AEAPEAX@Z@std@@@2@@std@@PEAX@std@@@std@@@std@@SAXAEAV?$allocator@U?$_List_node@U?$pair@$$CBVtype_index@std@@V?$vector@P6A_NPEAU_object@@AEAPEAX@ZV?$allocator@P6A_NPEAU_object@@AEAPEAX@Z@std@@@2@@std@@PEAX@std@@@2@QEAU?$_List_node@U?$pair@$$CBVtype_index@std@@V?$vector@P6A_NPEAU_object@@AEAPEAX@ZV?$allocator@P6A_NPEAU_object@@AEAPEAX@Z@std@@@2@@std@@PEAX@2@_K@Z
    ?deallocate@?$_Default_allocator_traits@V?$allocator@U?$_List_node@U?$pair@PEBU_object@@PEBD@std@@PEAX@std@@@std@@@std@@SAXAEAV?$allocator@U?$_List_node@U?$pair@PEBU_object@@PEBD@std@@PEAX@std@@@2@QEAU?$_List_node@U?$pair@PEBU_object@@PEBD@std@@PEAX@2@_K@Z
    ?deallocate@?$_Default_allocator_traits@V?$allocator@U?$_List_node@U?$pair@QEAU_typeobject@@V?$vector@PEAUtype_info@detail@pybind11@@V?$allocator@PEAUtype_info@detail@pybind11@@@std@@@std@@@std@@PEAX@std@@@std@@@std@@SAXAEAV?$allocator@U?$_List_node@U?$pair@QEAU_typeobject@@V?$vector@PEAUtype_info@detail@pybind11@@V?$allocator@PEAUtype_info@detail@pybind11@@@std@@@std@@@std@@PEAX@std@@@2@QEAU?$_List_node@U?$pair@QEAU_typeobject@@V?$vector@PEAUtype_info@detail@pybind11@@V?$allocator@PEAUtype_info@detail@pybind11@@@std@@@std@@@std@@PEAX@2@_K@Z
    ?deallocate@?$_Default_allocator_traits@V?$allocator@U?$_List_node@U?$pair@QEBU_object@@V?$vector@PEAU_object@@V?$allocator@PEAU_object@@@std@@@std@@@std@@PEAX@std@@@std@@@std@@SAXAEAV?$allocator@U?$_List_node@U?$pair@QEBU_object@@V?$vector@PEAU_object@@V?$allocator@PEAU_object@@@std@@@std@@@std@@PEAX@std@@@2@QEAU?$_List_node@U?$pair@QEBU_object@@V?$vector@PEAU_object@@V?$allocator@PEAU_object@@@std@@@std@@@std@@PEAX@2@_K@Z
    ?deallocate@?$_Default_allocator_traits@V?$allocator@U?$_List_node@U?$pair@QEBXPEAUinstance@detail@pybind11@@@std@@PEAX@std@@@std@@@std@@SAXAEAV?$allocator@U?$_List_node@U?$pair@QEBXPEAUinstance@detail@pybind11@@@std@@PEAX@std@@@2@QEAU?$_List_node@U?$pair@QEBXPEAUinstance@detail@pybind11@@@std@@PEAX@2@_K@Z
    ?deallocate@?$allocator@D@std@@QEAAXQEAD_K@Z
    ?deallocate@?$allocator@I@std@@QEAAXQEAI_K@Z
    ?deallocate@?$allocator@N@std@@QEAAXQEAN_K@Z
    ?deallocate@?$allocator@P6APEAU_object@@PEAU1@PEAU_typeobject@@@Z@std@@QEAAXQEAP6APEAU_object@@PEAU3@PEAU_typeobject@@@Z_K@Z
    ?deallocate@?$allocator@P6A_NPEAU_object@@AEAPEAX@Z@std@@QEAAXQEAP6A_NPEAU_object@@AEAPEAX@Z_K@Z
    ?deallocate@?$allocator@PEAD@std@@QEAAXQEAPEAD_K@Z
    ?deallocate@?$allocator@PEAU_object@@@std@@QEAAXQEAPEAU_object@@_K@Z
    ?deallocate@?$allocator@PEAU_typeobject@@@std@@QEAAXQEAPEAU_typeobject@@_K@Z
    ?deallocate@?$allocator@PEAUtype_info@detail@pybind11@@@std@@QEAAXQEAPEAUtype_info@detail@pybind11@@_K@Z
    ?deallocate@?$allocator@U?$_Flist_node@P6AXVexception_ptr@std@@@ZPEAX@std@@@std@@QEAAXQEAU?$_Flist_node@P6AXVexception_ptr@std@@@ZPEAX@2@_K@Z
    ?deallocate@?$allocator@U?$_Flist_node@V?$basic_string@DU?$char_traits@D@std@@V?$allocator@D@2@@std@@PEAX@std@@@std@@QEAAXQEAU?$_Flist_node@V?$basic_string@DU?$char_traits@D@std@@V?$allocator@D@2@@std@@PEAX@2@_K@Z
    ?deallocate@?$allocator@U?$_List_node@U?$pair@QEAU_typeobject@@V?$vector@PEAUtype_info@detail@pybind11@@V?$allocator@PEAUtype_info@detail@pybind11@@@std@@@std@@@std@@PEAX@std@@@std@@QEAAXQEAU?$_List_node@U?$pair@QEAU_typeobject@@V?$vector@PEAUtype_info@detail@pybind11@@V?$allocator@PEAUtype_info@detail@pybind11@@@std@@@std@@@std@@PEAX@2@_K@Z
    ?deallocate@?$allocator@U?$pair@PEBVtype_info@@P6APEAXPEAX@Z@std@@@std@@QEAAXQEAU?$pair@PEBVtype_info@@P6APEAXPEAX@Z@2@_K@Z
    ?deallocate@?$allocator@Uargument_record@detail@pybind11@@@std@@QEAAXQEAUargument_record@detail@pybind11@@_K@Z
    ?deallocate@?$allocator@Ufunction_call@detail@pybind11@@@std@@QEAAXQEAUfunction_call@detail@pybind11@@_K@Z
    ?deallocate@?$allocator@V?$_List_unchecked_const_iterator@V?$_List_val@U?$_List_simple_types@PEAU_object@@@std@@@std@@U_Iterator_base0@2@@std@@@std@@QEAAXQEAV?$_List_unchecked_const_iterator@V?$_List_val@U?$_List_simple_types@PEAU_object@@@std@@@std@@U_Iterator_base0@2@@2@_K@Z
    ?deallocate@?$allocator@V?$_List_unchecked_const_iterator@V?$_List_val@U?$_List_simple_types@U?$pair@PEBU_object@@PEBD@std@@@std@@@std@@U_Iterator_base0@2@@std@@@std@@QEAAXQEAV?$_List_unchecked_const_iterator@V?$_List_val@U?$_List_simple_types@U?$pair@PEBU_object@@PEBD@std@@@std@@@std@@U_Iterator_base0@2@@2@_K@Z
    ?deallocate@?$allocator@V?$_List_unchecked_iterator@V?$_List_val@U?$_List_simple_types@U?$pair@$$CBV?$basic_string@DU?$char_traits@D@std@@V?$allocator@D@2@@std@@PEAX@std@@@std@@@std@@@std@@@std@@QEAAXQEAV?$_List_unchecked_iterator@V?$_List_val@U?$_List_simple_types@U?$pair@$$CBV?$basic_string@DU?$char_traits@D@std@@V?$allocator@D@2@@std@@PEAX@std@@@std@@@std@@@2@_K@Z
    ?deallocate@?$allocator@V?$_List_unchecked_iterator@V?$_List_val@U?$_List_simple_types@U?$pair@$$CBVtype_index@std@@PEAUtype_info@detail@pybind11@@@std@@@std@@@std@@@std@@@std@@QEAAXQEAV?$_List_unchecked_iterator@V?$_List_val@U?$_List_simple_types@U?$pair@$$CBVtype_index@std@@PEAUtype_info@detail@pybind11@@@std@@@std@@@std@@@2@_K@Z
    ?deallocate@?$allocator@V?$_List_unchecked_iterator@V?$_List_val@U?$_List_simple_types@U?$pair@$$CBVtype_index@std@@V?$vector@P6A_NPEAU_object@@AEAPEAX@ZV?$allocator@P6A_NPEAU_object@@AEAPEAX@Z@std@@@2@@std@@@std@@@std@@@std@@@std@@QEAAXQEAV?$_List_unchecked_iterator@V?$_List_val@U?$_List_simple_types@U?$pair@$$CBVtype_index@std@@V?$vector@P6A_NPEAU_object@@AEAPEAX@ZV?$allocator@P6A_NPEAU_object@@AEAPEAX@Z@std@@@2@@std@@@std@@@std@@@2@_K@Z
    ?deallocate@?$allocator@V?$_List_unchecked_iterator@V?$_List_val@U?$_List_simple_types@U?$pair@QEAU_typeobject@@V?$vector@PEAUtype_info@detail@pybind11@@V?$allocator@PEAUtype_info@detail@pybind11@@@std@@@std@@@std@@@std@@@std@@@std@@@std@@QEAAXQEAV?$_List_unchecked_iterator@V?$_List_val@U?$_List_simple_types@U?$pair@QEAU_typeobject@@V?$vector@PEAUtype_info@detail@pybind11@@V?$allocator@PEAUtype_info@detail@pybind11@@@std@@@std@@@std@@@std@@@std@@@2@_K@Z
    ?deallocate@?$allocator@V?$_List_unchecked_iterator@V?$_List_val@U?$_List_simple_types@U?$pair@QEBU_object@@V?$vector@PEAU_object@@V?$allocator@PEAU_object@@@std@@@std@@@std@@@std@@@std@@@std@@@std@@QEAAXQEAV?$_List_unchecked_iterator@V?$_List_val@U?$_List_simple_types@U?$pair@QEBU_object@@V?$vector@PEAU_object@@V?$allocator@PEAU_object@@@std@@@std@@@std@@@std@@@std@@@2@_K@Z
    ?deallocate@?$allocator@V?$_List_unchecked_iterator@V?$_List_val@U?$_List_simple_types@U?$pair@QEBXPEAUinstance@detail@pybind11@@@std@@@std@@@std@@@std@@@std@@QEAAXQEAV?$_List_unchecked_iterator@V?$_List_val@U?$_List_simple_types@U?$pair@QEBXPEAUinstance@detail@pybind11@@@std@@@std@@@std@@@2@_K@Z
    ?deallocate@?$allocator@Vhandle@pybind11@@@std@@QEAAXQEAVhandle@pybind11@@_K@Z
    ?deallocate_layout@instance@detail@pybind11@@QEAAXXZ
    ?dec_ref@gil_scoped_acquire@pybind11@@QEAAXXZ
    ?dec_ref@handle@pybind11@@QEGBAAEBV12@XZ
    ?decode_utfN@?$string_caster@V?$basic_string@DU?$char_traits@D@std@@V?$allocator@D@2@@std@@$0A@@detail@pybind11@@CA?AVhandle@3@PEBD_J@Z
    ?dereference@dict_readonly@iterator_policies@detail@pybind11@@IEBA?BU?$pair@Vhandle@pybind11@@V12@@std@@XZ
    ?dereference@sequence_fast_readonly@iterator_policies@detail@pybind11@@IEBA?BVhandle@4@XZ
    ?deregister_instance@detail@pybind11@@YA_NPEAUinstance@12@PEAXPEBUtype_info@12@@Z
    ?deregister_instance_impl@detail@pybind11@@YA_NPEAXPEAUinstance@12@@Z
    ?derived@?$object_api@V?$accessor@Ustr_attr@accessor_policies@detail@pybind11@@@detail@pybind11@@@detail@pybind11@@AEBAAEBV?$accessor@Ustr_attr@accessor_policies@detail@pybind11@@@23@XZ
    ?derived@?$object_api@Vhandle@pybind11@@@detail@pybind11@@AEBAAEBVhandle@3@XZ
    ?destruct@cpp_function@pybind11@@KAXPEAUfunction_record@detail@2@_N@Z
    ?dict_getitemstring@detail@pybind11@@YAPEAU_object@@PEAU3@PEBD@Z
    ?dict_getitemstringref@detail@pybind11@@YAPEAU_object@@PEAU3@PEBD@Z
    ?dintels_wrapper@@YA?BV?$tuple@V?$vector@NV?$allocator@N@std@@@std@@V12@@std@@NNNNNNNNJNN@Z
    ?dintelu_wrapper@@YA?BV?$tuple@V?$vector@NV?$allocator@N@std@@@std@@V12@@std@@JNNNNNNNNNJNJJNN@Z
    ?dispatcher@cpp_function@pybind11@@KAPEAU_object@@PEAU3@00@Z
    ?doc@?$object_api@Vhandle@pybind11@@@detail@pybind11@@QEBA?AV?$accessor@Ustr_attr@accessor_policies@detail@pybind11@@@23@XZ
    ?empty@?$basic_string@DU?$char_traits@D@std@@V?$allocator@D@2@@std@@QEBA_NXZ
    ?empty@?$vector@PEAUtype_info@detail@pybind11@@V?$allocator@PEAUtype_info@detail@pybind11@@@std@@@std@@QEBA_NXZ
    ?empty@?$vector@Uargument_record@detail@pybind11@@V?$allocator@Uargument_record@detail@pybind11@@@std@@@std@@QEBA_NXZ
    ?empty@?$vector@Ufunction_call@detail@pybind11@@V?$allocator@Ufunction_call@detail@pybind11@@@std@@@std@@QEBA_NXZ
    ?empty@?$vector@_NV?$allocator@_N@std@@@std@@QEBA_NXZ
    ?empty@dict@pybind11@@QEBA_NXZ
    ?enable_dynamic_attributes@detail@pybind11@@YAXPEAU_heaptypeobject@@@Z
    ?end@?$_Hash@V?$_Umap_traits@PEAU_typeobject@@V?$vector@PEAUtype_info@detail@pybind11@@V?$allocator@PEAUtype_info@detail@pybind11@@@std@@@std@@V?$_Uhash_compare@PEAU_typeobject@@U?$hash@PEAU_typeobject@@@std@@U?$equal_to@PEAU_typeobject@@@3@@3@V?$allocator@U?$pair@QEAU_typeobject@@V?$vector@PEAUtype_info@detail@pybind11@@V?$allocator@PEAUtype_info@detail@pybind11@@@std@@@std@@@std@@@3@$0A@@std@@@std@@QEAA?AV?$_List_iterator@V?$_List_val@U?$_List_simple_types@U?$pair@QEAU_typeobject@@V?$vector@PEAUtype_info@detail@pybind11@@V?$allocator@PEAUtype_info@detail@pybind11@@@std@@@std@@@std@@@std@@@std@@@2@XZ
    ?end@?$_Hash@V?$_Umap_traits@PEAU_typeobject@@V?$vector@PEAUtype_info@detail@pybind11@@V?$allocator@PEAUtype_info@detail@pybind11@@@std@@@std@@V?$_Uhash_compare@PEAU_typeobject@@U?$hash@PEAU_typeobject@@@std@@U?$equal_to@PEAU_typeobject@@@3@@3@V?$allocator@U?$pair@QEAU_typeobject@@V?$vector@PEAUtype_info@detail@pybind11@@V?$allocator@PEAUtype_info@detail@pybind11@@@std@@@std@@@std@@@3@$0A@@std@@@std@@QEBA?AV?$_List_const_iterator@V?$_List_val@U?$_List_simple_types@U?$pair@QEAU_typeobject@@V?$vector@PEAUtype_info@detail@pybind11@@V?$allocator@PEAUtype_info@detail@pybind11@@@std@@@std@@@std@@@std@@@std@@@2@XZ
    ?end@?$_Hash@V?$_Umap_traits@PEBU_object@@V?$vector@PEAU_object@@V?$allocator@PEAU_object@@@std@@@std@@V?$_Uhash_compare@PEBU_object@@U?$hash@PEBU_object@@@std@@U?$equal_to@PEBU_object@@@3@@3@V?$allocator@U?$pair@QEBU_object@@V?$vector@PEAU_object@@V?$allocator@PEAU_object@@@std@@@std@@@std@@@3@$0A@@std@@@std@@QEAA?AV?$_List_iterator@V?$_List_val@U?$_List_simple_types@U?$pair@QEBU_object@@V?$vector@PEAU_object@@V?$allocator@PEAU_object@@@std@@@std@@@std@@@std@@@std@@@2@XZ
    ?end@?$_Hash@V?$_Umap_traits@Vtype_index@std@@PEAUtype_info@detail@pybind11@@V?$_Uhash_compare@Vtype_index@std@@U?$hash@Vtype_index@std@@@2@U?$equal_to@Vtype_index@std@@@2@@2@V?$allocator@U?$pair@$$CBVtype_index@std@@PEAUtype_info@detail@pybind11@@@std@@@2@$0A@@std@@@std@@QEAA?AV?$_List_iterator@V?$_List_val@U?$_List_simple_types@U?$pair@$$CBVtype_index@std@@PEAUtype_info@detail@pybind11@@@std@@@std@@@std@@@2@XZ
    ?end@?$_Hash@V?$_Uset_traits@PEAU_object@@V?$_Uhash_compare@PEAU_object@@U?$hash@PEAU_object@@@std@@U?$equal_to@PEAU_object@@@3@@std@@V?$allocator@PEAU_object@@@3@$0A@@std@@@std@@QEAA?AV?$_List_const_iterator@V?$_List_val@U?$_List_simple_types@PEAU_object@@@std@@@std@@@2@XZ
    ?end@?$_Hash@V?$_Uset_traits@U?$pair@PEBU_object@@PEBD@std@@V?$_Uhash_compare@U?$pair@PEBU_object@@PEBD@std@@Uoverride_hash@detail@pybind11@@U?$equal_to@U?$pair@PEBU_object@@PEBD@std@@@2@@2@V?$allocator@U?$pair@PEBU_object@@PEBD@std@@@2@$0A@@std@@@std@@QEAA?AV?$_List_const_iterator@V?$_List_val@U?$_List_simple_types@U?$pair@PEBU_object@@PEBD@std@@@std@@@std@@@2@XZ
    ?end@?$array@Vobject@pybind11@@$00@std@@QEAA?AV?$_Array_iterator@Vobject@pybind11@@$00@2@XZ
    ?end@?$array@Vobject@pybind11@@$01@std@@QEAA?AV?$_Array_iterator@Vobject@pybind11@@$01@2@XZ
    ?end@?$forward_list@P6AXVexception_ptr@std@@@ZV?$allocator@P6AXVexception_ptr@std@@@Z@2@@std@@QEAA?AV?$_Flist_iterator@V?$_Flist_val@U?$_Flist_simple_types@P6AXVexception_ptr@std@@@Z@std@@@std@@@2@XZ
    ?end@?$list@PEAU_object@@V?$allocator@PEAU_object@@@std@@@std@@QEAA?AV?$_List_iterator@V?$_List_val@U?$_List_simple_types@PEAU_object@@@std@@@std@@@2@XZ
    ?end@?$list@U?$pair@$$CBVtype_index@std@@PEAUtype_info@detail@pybind11@@@std@@V?$allocator@U?$pair@$$CBVtype_index@std@@PEAUtype_info@detail@pybind11@@@std@@@2@@std@@QEAA?AV?$_List_iterator@V?$_List_val@U?$_List_simple_types@U?$pair@$$CBVtype_index@std@@PEAUtype_info@detail@pybind11@@@std@@@std@@@std@@@2@XZ
    ?end@?$list@U?$pair@PEBU_object@@PEBD@std@@V?$allocator@U?$pair@PEBU_object@@PEBD@std@@@2@@std@@QEAA?AV?$_List_iterator@V?$_List_val@U?$_List_simple_types@U?$pair@PEBU_object@@PEBD@std@@@std@@@std@@@2@XZ
    ?end@?$list@U?$pair@QEAU_typeobject@@V?$vector@PEAUtype_info@detail@pybind11@@V?$allocator@PEAUtype_info@detail@pybind11@@@std@@@std@@@std@@V?$allocator@U?$pair@QEAU_typeobject@@V?$vector@PEAUtype_info@detail@pybind11@@V?$allocator@PEAUtype_info@detail@pybind11@@@std@@@std@@@std@@@2@@std@@QEAA?AV?$_List_iterator@V?$_List_val@U?$_List_simple_types@U?$pair@QEAU_typeobject@@V?$vector@PEAUtype_info@detail@pybind11@@V?$allocator@PEAUtype_info@detail@pybind11@@@std@@@std@@@std@@@std@@@std@@@2@XZ
    ?end@?$list@U?$pair@QEAU_typeobject@@V?$vector@PEAUtype_info@detail@pybind11@@V?$allocator@PEAUtype_info@detail@pybind11@@@std@@@std@@@std@@V?$allocator@U?$pair@QEAU_typeobject@@V?$vector@PEAUtype_info@detail@pybind11@@V?$allocator@PEAUtype_info@detail@pybind11@@@std@@@std@@@std@@@2@@std@@QEBA?AV?$_List_const_iterator@V?$_List_val@U?$_List_simple_types@U?$pair@QEAU_typeobject@@V?$vector@PEAUtype_info@detail@pybind11@@V?$allocator@PEAUtype_info@detail@pybind11@@@std@@@std@@@std@@@std@@@std@@@2@XZ
    ?end@?$list@U?$pair@QEBU_object@@V?$vector@PEAU_object@@V?$allocator@PEAU_object@@@std@@@std@@@std@@V?$allocator@U?$pair@QEBU_object@@V?$vector@PEAU_object@@V?$allocator@PEAU_object@@@std@@@std@@@std@@@2@@std@@QEAA?AV?$_List_iterator@V?$_List_val@U?$_List_simple_types@U?$pair@QEBU_object@@V?$vector@PEAU_object@@V?$allocator@PEAU_object@@@std@@@std@@@std@@@std@@@std@@@2@XZ
    ?end@?$vector@IV?$allocator@I@std@@@std@@QEAA?AV?$_Vector_iterator@V?$_Vector_val@U?$_Simple_types@I@std@@@std@@@2@XZ
    ?end@?$vector@NV?$allocator@N@std@@@std@@QEBA?AV?$_Vector_const_iterator@V?$_Vector_val@U?$_Simple_types@N@std@@@std@@@2@XZ
    ?end@?$vector@PEADV?$allocator@PEAD@std@@@std@@QEAA?AV?$_Vector_iterator@V?$_Vector_val@U?$_Simple_types@PEAD@std@@@std@@@2@XZ
    ?end@?$vector@PEAU_object@@V?$allocator@PEAU_object@@@std@@@std@@QEAA?AV?$_Vector_iterator@V?$_Vector_val@U?$_Simple_types@PEAU_object@@@std@@@std@@@2@XZ
    ?end@?$vector@PEAUtype_info@detail@pybind11@@V?$allocator@PEAUtype_info@detail@pybind11@@@std@@@std@@QEAA?AV?$_Vector_iterator@V?$_Vector_val@U?$_Simple_types@PEAUtype_info@detail@pybind11@@@std@@@std@@@2@XZ
    ?end@?$vector@PEAUtype_info@detail@pybind11@@V?$allocator@PEAUtype_info@detail@pybind11@@@std@@@std@@QEBA?AV?$_Vector_const_iterator@V?$_Vector_val@U?$_Simple_types@PEAUtype_info@detail@pybind11@@@std@@@std@@@2@XZ
    ?end@?$vector@U?$pair@PEBVtype_info@@P6APEAXPEAX@Z@std@@V?$allocator@U?$pair@PEBVtype_info@@P6APEAXPEAX@Z@std@@@2@@std@@QEAA?AV?$_Vector_iterator@V?$_Vector_val@U?$_Simple_types@U?$pair@PEBVtype_info@@P6APEAXPEAX@Z@std@@@std@@@std@@@2@XZ
    ?end@?$vector@Uargument_record@detail@pybind11@@V?$allocator@Uargument_record@detail@pybind11@@@std@@@std@@QEAA?AV?$_Vector_iterator@V?$_Vector_val@U?$_Simple_types@Uargument_record@detail@pybind11@@@std@@@std@@@2@XZ
    ?end@?$vector@Ufunction_call@detail@pybind11@@V?$allocator@Ufunction_call@detail@pybind11@@@std@@@std@@QEAA?AV?$_Vector_iterator@V?$_Vector_val@U?$_Simple_types@Ufunction_call@detail@pybind11@@@std@@@std@@@2@XZ
    ?end@?$vector@_NV?$allocator@_N@std@@@std@@QEAA?AV?$_Vb_iterator@U?$_Wrap_alloc@V?$allocator@I@std@@@std@@@2@XZ
    ?end@dict@pybind11@@QEBA?AV?$generic_iterator@Vdict_readonly@iterator_policies@detail@pybind11@@@detail@2@XZ
    ?end@tuple@pybind11@@QEBA?AV?$generic_iterator@Vsequence_fast_readonly@iterator_policies@detail@pybind11@@@detail@2@XZ
    ?end@values_and_holders@detail@pybind11@@QEAA?AUiterator@123@XZ
    ?equal@dict_readonly@iterator_policies@detail@pybind11@@IEBA_NAEBV1234@@Z
    ?equal@sequence_fast_readonly@iterator_policies@detail@pybind11@@IEBA_NAEBV1234@@Z
    ?erase@?$_Hash@V?$_Umap_traits@PEAU_typeobject@@V?$vector@PEAUtype_info@detail@pybind11@@V?$allocator@PEAUtype_info@detail@pybind11@@@std@@@std@@V?$_Uhash_compare@PEAU_typeobject@@U?$hash@PEAU_typeobject@@@std@@U?$equal_to@PEAU_typeobject@@@3@@3@V?$allocator@U?$pair@QEAU_typeobject@@V?$vector@PEAUtype_info@detail@pybind11@@V?$allocator@PEAUtype_info@detail@pybind11@@@std@@@std@@@std@@@3@$0A@@std@@@std@@QEAA_KAEBQEAU_typeobject@@@Z
    ?erase@?$_Hash@V?$_Umap_traits@Vtype_index@std@@PEAUtype_info@detail@pybind11@@V?$_Uhash_compare@Vtype_index@std@@U?$hash@Vtype_index@std@@@2@U?$equal_to@Vtype_index@std@@@2@@2@V?$allocator@U?$pair@$$CBVtype_index@std@@PEAUtype_info@detail@pybind11@@@std@@@2@$0A@@std@@@std@@QEAA_KAEBVtype_index@2@@Z
    ?erase@?$_Hash@V?$_Umap_traits@Vtype_index@std@@V?$vector@P6A_NPEAU_object@@AEAPEAX@ZV?$allocator@P6A_NPEAU_object@@AEAPEAX@Z@std@@@2@V?$_Uhash_compare@Vtype_index@std@@U?$hash@Vtype_index@std@@@2@U?$equal_to@Vtype_index@std@@@2@@2@V?$allocator@U?$pair@$$CBVtype_index@std@@V?$vector@P6A_NPEAU_object@@AEAPEAX@ZV?$allocator@P6A_NPEAU_object@@AEAPEAX@Z@std@@@2@@std@@@2@$0A@@std@@@std@@QEAA_KAEBVtype_index@2@@Z
    ?erase@?$_Hash@V?$_Uset_traits@U?$pair@PEBU_object@@PEBD@std@@V?$_Uhash_compare@U?$pair@PEBU_object@@PEBD@std@@Uoverride_hash@detail@pybind11@@U?$equal_to@U?$pair@PEBU_object@@PEBD@std@@@2@@2@V?$allocator@U?$pair@PEBU_object@@PEBD@std@@@2@$0A@@std@@@std@@QEAA?AV?$_List_const_iterator@V?$_List_val@U?$_List_simple_types@U?$pair@PEBU_object@@PEBD@std@@@std@@@std@@@2@V32@@Z
    ?erase@?$basic_string@DU?$char_traits@D@std@@V?$allocator@D@2@@std@@QEAAAEAV12@_K0@Z
    ?erase@?$vector@IV?$allocator@I@std@@@std@@QEAA?AV?$_Vector_iterator@V?$_Vector_val@U?$_Simple_types@I@std@@@std@@@2@V?$_Vector_const_iterator@V?$_Vector_val@U?$_Simple_types@I@std@@@std@@@2@0@Z
    ?erase@?$vector@_NV?$allocator@_N@std@@@std@@QEAA?AV?$_Vb_iterator@U?$_Wrap_alloc@V?$allocator@I@std@@@std@@@2@V?$_Vb_const_iterator@U?$_Wrap_alloc@V?$allocator@I@std@@@std@@@2@0@Z
    ?erase_all@detail@pybind11@@YAXAEAV?$basic_string@DU?$char_traits@D@std@@V?$allocator@D@2@@std@@AEBV34@@Z
    ?error_string@detail@pybind11@@YA?AV?$basic_string@DU?$char_traits@D@std@@V?$allocator@D@2@@std@@XZ
    ?error_string@error_fetch_and_normalize@detail@pybind11@@QEBAAEBV?$basic_string@DU?$char_traits@D@std@@V?$allocator@D@2@@std@@XZ
    ?find@?$_Narrow_char_traits@DH@std@@SAPEBDQEBD_KAEBD@Z
    ?find@?$basic_string@DU?$char_traits@D@std@@V?$allocator@D@2@@std@@QEBA_KAEBV12@_K@Z
    ?find@?$basic_string@DU?$char_traits@D@std@@V?$allocator@D@2@@std@@QEBA_KD_K@Z
    ?find@?$basic_string@DU?$char_traits@D@std@@V?$allocator@D@2@@std@@QEBA_KQEBD_K@Z
    ?find@values_and_holders@detail@pybind11@@QEAA?AUiterator@123@PEBUtype_info@23@@Z
    ?find_first_not_of@?$basic_string@DU?$char_traits@D@std@@V?$allocator@D@2@@std@@QEBA_KQEBD_K@Z
    ?find_last_not_of@?$basic_string@DU?$char_traits@D@std@@V?$allocator@D@2@@std@@QEBA_KQEBD_K@Z
    ?flag@mod_gil_not_used@pybind11@@QEBA_NXZ
    ?format_value_and_trace@error_fetch_and_normalize@detail@pybind11@@QEBA?AV?$basic_string@DU?$char_traits@D@std@@V?$allocator@D@2@@std@@XZ
    ?front@?$vector@PEAUtype_info@detail@pybind11@@V?$allocator@PEAUtype_info@detail@pybind11@@@std@@@std@@QEBAAEBQEAUtype_info@detail@pybind11@@XZ
    ?get@?$_Ptr_base@Uerror_fetch_and_normalize@detail@pybind11@@@std@@IEBAPEAUerror_fetch_and_normalize@detail@pybind11@@XZ
    ?get@?$unique_ptr@Ufunction_record@detail@pybind11@@UInitializingFunctionRecordDeleter@cpp_function@3@@std@@QEBAPEAUfunction_record@detail@pybind11@@XZ
    ?get@str_attr@accessor_policies@detail@pybind11@@SA?AVobject@4@Vhandle@4@PEBD@Z
    ?get_cache@?$accessor@Ustr_attr@accessor_policies@detail@pybind11@@@detail@pybind11@@AEBAAEAVobject@3@XZ
    ?get_cache@?$accessor@Utuple_item@accessor_policies@detail@pybind11@@@detail@pybind11@@AEBAAEAVobject@3@XZ
    ?get_fully_qualified_tp_name@detail@pybind11@@YA?AV?$basic_string@DU?$char_traits@D@std@@V?$allocator@D@2@@std@@PEAU_typeobject@@@Z
    ?get_function_record_capsule_name@detail@pybind11@@YAPEBDXZ
    ?get_global_type_info@detail@pybind11@@YAPEAUtype_info@12@AEBVtype_index@std@@@Z
    ?get_internals@detail@pybind11@@YAAEAUinternals@12@XZ
    ?get_internals_obj_from_state_dict@detail@pybind11@@YA?AVobject@2@Vhandle@2@@Z
    ?get_internals_pp@detail@pybind11@@YAAEAPEAPEAUinternals@12@XZ
    ?get_internals_pp_from_capsule@detail@pybind11@@YAPEAPEAUinternals@12@Vhandle@2@@Z
    ?get_local_internals@detail@pybind11@@YAAEAUlocal_internals@12@XZ
    ?get_local_type_info@detail@pybind11@@YAPEAUtype_info@12@AEBVtype_index@std@@@Z
    ?get_name_in_error_scope@capsule@pybind11@@CAPEBDPEAU_object@@@Z
    ?get_python_state_dict@detail@pybind11@@YA?AVobject@2@XZ
    ?get_stack_tls_key@loader_life_support@detail@pybind11@@CAAEAU_Py_tss_t@@XZ
    ?get_stack_top@loader_life_support@detail@pybind11@@CAPEAV123@XZ
    ?get_thread_state_unchecked@detail@pybind11@@YAPEAU_ts@@XZ
    ?get_type_info@detail@pybind11@@YAPEAUtype_info@12@AEBVtype_index@std@@_N@Z
    ?get_type_info@detail@pybind11@@YAPEAUtype_info@12@PEAU_typeobject@@@Z
    ?get_value_and_holder@instance@detail@pybind11@@QEAA?AUvalue_and_holder@23@PEBUtype_info@23@_N@Z
    ?getattr@pybind11@@YA?AVobject@1@Vhandle@1@PEBD0@Z
    ?getattr@pybind11@@YA?AVobject@1@Vhandle@1@PEBD@Z
    ?getset@?1??enable_dynamic_attributes@detail@pybind11@@YAXPEAU_heaptypeobject@@@Z@4PAUPyGetSetDef@@A
    ?global_state@options@pybind11@@CAAEAUstate@12@XZ
    ?handle_of@type@pybind11@@SA?AVhandle@2@V32@@Z
    ?hasattr@pybind11@@YA_NVhandle@1@PEBD@Z
    ?hash_code@type_index@std@@QEBA_KXZ
    ?hash_code@type_info@@QEBA_KXZ
    ?holder_constructed@value_and_holder@detail@pybind11@@QEBA_NXZ
    ?inc_ref@gil_scoped_acquire@pybind11@@QEAAXXZ
    ?inc_ref@handle@pybind11@@QEGBAAEBV12@XZ
    ?inc_ref_counter@handle@pybind11@@CA_K_K@Z
    ?increment@dict_readonly@iterator_policies@detail@pybind11@@IEAAXXZ
    ?increment@sequence_fast_readonly@iterator_policies@detail@pybind11@@IEAAXXZ
    ?init@?$process_attribute@PEBDX@detail@pybind11@@SAXPEBDPEAUfunction_record@23@@Z
    ?init@?$process_attribute@Uarg@pybind11@@X@detail@pybind11@@SAXAEBUarg@3@PEAUfunction_record@23@@Z
    ?init@?$process_attribute@Uname@pybind11@@X@detail@pybind11@@SAXAEBUname@3@PEAUfunction_record@23@@Z
    ?init@?$process_attribute@Uscope@pybind11@@X@detail@pybind11@@SAXAEBUscope@3@PEAUfunction_record@23@@Z
    ?init@?$process_attribute@Usibling@pybind11@@X@detail@pybind11@@SAXAEBUsibling@3@PEAUfunction_record@23@@Z
    ?init@?$process_attributes@$$V@detail@pybind11@@SAXPEAUfunction_record@23@@Z
    ?init@?$process_attributes@Uname@pybind11@@Uscope@2@Usibling@2@$$BY0DKL@DUarg@2@U52@U52@U52@U52@U52@U52@U52@U52@U52@U52@@detail@pybind11@@SAXAEBUname@3@AEBUscope@3@AEBUsibling@3@AEAY0DKL@$$CBDAEBUarg@3@4444444444PEAUfunction_record@23@@Z
    ?init@?$process_attributes@Uname@pybind11@@Uscope@2@Usibling@2@$$BY0GBH@DUarg@2@U52@U52@U52@U52@U52@U52@U52@U52@U52@U52@U52@U52@U52@U52@U52@@detail@pybind11@@SAXAEBUname@3@AEBUscope@3@AEBUsibling@3@AEAY0GBH@$$CBDAEBUarg@3@444444444444444PEAUfunction_record@23@@Z
    ?initialize_generic@cpp_function@pybind11@@IEAAX$$QEAV?$unique_ptr@Ufunction_record@detail@pybind11@@UInitializingFunctionRecordDeleter@cpp_function@3@@std@@PEBDPEBQEBVtype_info@@_K@Z
    ?initialize_with_void_ptr_destructor@capsule@pybind11@@AEAAXPEBXPEBDP6AXPEAX@Z@Z
    ?insert@?$basic_string@DU?$char_traits@D@std@@V?$allocator@D@2@@std@@QEAAAEAV12@_KQEBD0@Z
    ?insert@?$basic_string@DU?$char_traits@D@std@@V?$allocator@D@2@@std@@QEAAAEAV12@_KQEBD@Z
    ?insert@?$vector@PEAUtype_info@detail@pybind11@@V?$allocator@PEAUtype_info@detail@pybind11@@@std@@@std@@QEAA?AV?$_Vector_iterator@V?$_Vector_val@U?$_Simple_types@PEAUtype_info@detail@pybind11@@@std@@@std@@@2@V?$_Vector_const_iterator@V?$_Vector_val@U?$_Simple_types@PEAUtype_info@detail@pybind11@@@std@@@std@@@2@AEBQEAUtype_info@detail@pybind11@@@Z
    ?insert@?$vector@_NV?$allocator@_N@std@@@std@@QEAA?AV?$_Vb_iterator@U?$_Wrap_alloc@V?$allocator@I@std@@@std@@@2@V?$_Vb_const_iterator@U?$_Wrap_alloc@V?$allocator@I@std@@@std@@@2@AEB_N@Z
    ?instance@?1??global_state@options@pybind11@@CAAEAUstate@23@XZ@4U423@A
    ?instance_registered@value_and_holder@detail@pybind11@@QEBA_NXZ
    ?instance_simple_holder_in_ptrs@detail@pybind11@@YA_KXZ
    ?internals_pp@?1??get_internals_pp@detail@pybind11@@YAAEAPEAPEAUinternals@23@XZ@4PEAPEAU423@EA
    ?is@?$object_api@Vhandle@pybind11@@@detail@pybind11@@QEBA_NAEBV123@@Z
    ?is_function_record_capsule@detail@pybind11@@YA_NAEBVcapsule@2@@Z
    ?is_none@?$object_api@Vhandle@pybind11@@@detail@pybind11@@QEBA_NXZ
    ?is_redundant_value_and_holder@values_and_holders@detail@pybind11@@QEAA_NAEBUvalue_and_holder@23@@Z
    ?length@?$_Narrow_char_traits@DH@std@@SA_KQEBD@Z
    ?length@?$basic_string@DU?$char_traits@D@std@@V?$allocator@D@2@@std@@QEBA_KXZ
    ?load@?$string_caster@V?$basic_string@DU?$char_traits@D@std@@V?$allocator@D@2@@std@@$0A@@detail@pybind11@@QEAA_NVhandle@3@_N@Z
    ?load@?$type_caster@JX@detail@pybind11@@QEAA_NVhandle@3@_N@Z
    ?load@?$type_caster@NX@detail@pybind11@@QEAA_NVhandle@3@_N@Z
    ?load_args@?$argument_loader@JNNNNNNNNNJNJJNN@detail@pybind11@@QEAA_NAEAUfunction_call@23@@Z
    ?load_args@?$argument_loader@NNNNNNNNJNN@detail@pybind11@@QEAA_NAEAUfunction_call@23@@Z
    ?load_args@?$argument_loader@Vhandle@pybind11@@@detail@pybind11@@QEAA_NAEAUfunction_call@23@@Z
    ?locals@?1??get_local_internals@detail@pybind11@@YAAEAUlocal_internals@23@XZ@4PEAU423@EA
    ?m_fetched_error_deleter@error_already_set@pybind11@@CAXPEAUerror_fetch_and_normalize@detail@2@@Z
    ?make_default_metaclass@detail@pybind11@@YAPEAU_typeobject@@XZ
    ?make_function_record@cpp_function@pybind11@@IEAA?AV?$unique_ptr@Ufunction_record@detail@pybind11@@UInitializingFunctionRecordDeleter@cpp_function@3@@std@@XZ
    ?make_new_instance@detail@pybind11@@YAPEAU_object@@PEAU_typeobject@@@Z
    ?make_object_base_type@detail@pybind11@@YAPEAU_object@@PEAU_typeobject@@@Z
    ?make_static_property_type@detail@pybind11@@YAPEAU_typeobject@@XZ
    ?max_load_factor@?$_Hash@V?$_Umap_traits@PEAU_typeobject@@V?$vector@PEAUtype_info@detail@pybind11@@V?$allocator@PEAUtype_info@detail@pybind11@@@std@@@std@@V?$_Uhash_compare@PEAU_typeobject@@U?$hash@PEAU_typeobject@@@std@@U?$equal_to@PEAU_typeobject@@@3@@3@V?$allocator@U?$pair@QEAU_typeobject@@V?$vector@PEAUtype_info@detail@pybind11@@V?$allocator@PEAUtype_info@detail@pybind11@@@std@@@std@@@std@@@3@$0A@@std@@@std@@QEBAMXZ
    ?max_size@?$_Default_allocator_traits@V?$allocator@D@std@@@std@@SA_KAEBV?$allocator@D@2@@Z
    ?max_size@?$_Default_allocator_traits@V?$allocator@I@std@@@std@@SA_KAEBV?$allocator@I@2@@Z
    ?max_size@?$_Default_allocator_traits@V?$allocator@N@std@@@std@@SA_KAEBV?$allocator@N@2@@Z
    ?max_size@?$_Default_allocator_traits@V?$allocator@PEAD@std@@@std@@SA_KAEBV?$allocator@PEAD@2@@Z
    ?max_size@?$_Default_allocator_traits@V?$allocator@PEAU_typeobject@@@std@@@std@@SA_KAEBV?$allocator@PEAU_typeobject@@@2@@Z
    ?max_size@?$_Default_allocator_traits@V?$allocator@PEAUtype_info@detail@pybind11@@@std@@@std@@SA_KAEBV?$allocator@PEAUtype_info@detail@pybind11@@@2@@Z
    ?max_size@?$_Default_allocator_traits@V?$allocator@U?$_List_node@U?$pair@QEAU_typeobject@@V?$vector@PEAUtype_info@detail@pybind11@@V?$allocator@PEAUtype_info@detail@pybind11@@@std@@@std@@@std@@PEAX@std@@@std@@@std@@SA_KAEBV?$allocator@U?$_List_node@U?$pair@QEAU_typeobject@@V?$vector@PEAUtype_info@detail@pybind11@@V?$allocator@PEAUtype_info@detail@pybind11@@@std@@@std@@@std@@PEAX@std@@@2@@Z
    ?max_size@?$_Default_allocator_traits@V?$allocator@Uargument_record@detail@pybind11@@@std@@@std@@SA_KAEBV?$allocator@Uargument_record@detail@pybind11@@@2@@Z
    ?max_size@?$_Default_allocator_traits@V?$allocator@Ufunction_call@detail@pybind11@@@std@@@std@@SA_KAEBV?$allocator@Ufunction_call@detail@pybind11@@@2@@Z
    ?max_size@?$_Default_allocator_traits@V?$allocator@V?$_List_unchecked_iterator@V?$_List_val@U?$_List_simple_types@U?$pair@QEAU_typeobject@@V?$vector@PEAUtype_info@detail@pybind11@@V?$allocator@PEAUtype_info@detail@pybind11@@@std@@@std@@@std@@@std@@@std@@@std@@@std@@@std@@SA_KAEBV?$allocator@V?$_List_unchecked_iterator@V?$_List_val@U?$_List_simple_types@U?$pair@QEAU_typeobject@@V?$vector@PEAUtype_info@detail@pybind11@@V?$allocator@PEAUtype_info@detail@pybind11@@@std@@@std@@@std@@@std@@@std@@@std@@@2@@Z
    ?max_size@?$_Default_allocator_traits@V?$allocator@Vhandle@pybind11@@@std@@@std@@SA_KAEBV?$allocator@Vhandle@pybind11@@@2@@Z
    ?max_size@?$_Hash_vec@V?$allocator@V?$_List_unchecked_iterator@V?$_List_val@U?$_List_simple_types@U?$pair@QEAU_typeobject@@V?$vector@PEAUtype_info@detail@pybind11@@V?$allocator@PEAUtype_info@detail@pybind11@@@std@@@std@@@std@@@std@@@std@@@std@@@std@@@std@@QEBA_KXZ
    ?max_size@?$basic_string@DU?$char_traits@D@std@@V?$allocator@D@2@@std@@QEBA_KXZ
    ?max_size@?$list@U?$pair@QEAU_typeobject@@V?$vector@PEAUtype_info@detail@pybind11@@V?$allocator@PEAUtype_info@detail@pybind11@@@std@@@std@@@std@@V?$allocator@U?$pair@QEAU_typeobject@@V?$vector@PEAUtype_info@detail@pybind11@@V?$allocator@PEAUtype_info@detail@pybind11@@@std@@@std@@@std@@@2@@std@@QEBA_KXZ
    ?max_size@?$vector@IV?$allocator@I@std@@@std@@QEBA_KXZ
    ?max_size@?$vector@NV?$allocator@N@std@@@std@@QEBA_KXZ
    ?max_size@?$vector@PEADV?$allocator@PEAD@std@@@std@@QEBA_KXZ
    ?max_size@?$vector@PEAU_typeobject@@V?$allocator@PEAU_typeobject@@@std@@@std@@QEBA_KXZ
    ?max_size@?$vector@PEAUtype_info@detail@pybind11@@V?$allocator@PEAUtype_info@detail@pybind11@@@std@@@std@@QEBA_KXZ
    ?max_size@?$vector@Uargument_record@detail@pybind11@@V?$allocator@Uargument_record@detail@pybind11@@@std@@@std@@QEBA_KXZ
    ?max_size@?$vector@Ufunction_call@detail@pybind11@@V?$allocator@Ufunction_call@detail@pybind11@@@std@@@std@@QEBA_KXZ
    ?max_size@?$vector@Vhandle@pybind11@@V?$allocator@Vhandle@pybind11@@@std@@@std@@QEBA_KXZ
    ?max_size@?$vector@_NV?$allocator@_N@std@@@std@@QEBA_KXZ
    ?move@?$_Char_traits@DH@std@@SAPEADQEADQEBD_K@Z
    ?name@capsule@pybind11@@QEBAPEBDXZ
    ?name@type_index@std@@QEBAPEBDXZ
    ?name@type_info@@QEBAPEBDXZ
    ?nested_ptr@nested_exception@std@@QEBA?AVexception_ptr@2@XZ
    ?obj_class_name@detail@pybind11@@YAPEBDPEAU_object@@@Z
    ?object_or_cast@detail@pybind11@@YA?AVhandle@2@PEAU_object@@@Z
    ?pointer_to@?$pointer_traits@PEAU?$_Flist_node@P6AXVexception_ptr@std@@@ZPEAX@std@@@std@@SAPEAU?$_Flist_node@P6AXVexception_ptr@std@@@ZPEAX@2@AEAU32@@Z
    ?pointer_to@?$pointer_traits@PEAU?$pair@$$CBVtype_index@std@@PEAUtype_info@detail@pybind11@@@std@@@std@@SAPEAU?$pair@$$CBVtype_index@std@@PEAUtype_info@detail@pybind11@@@2@AEAU32@@Z
    ?pointer_to@?$pointer_traits@PEAU?$pair@QEAU_typeobject@@V?$vector@PEAUtype_info@detail@pybind11@@V?$allocator@PEAUtype_info@detail@pybind11@@@std@@@std@@@std@@@std@@SAPEAU?$pair@QEAU_typeobject@@V?$vector@PEAUtype_info@detail@pybind11@@V?$allocator@PEAUtype_info@detail@pybind11@@@std@@@std@@@2@AEAU32@@Z
    ?pointer_to@?$pointer_traits@PEAU?$pair@QEBU_object@@V?$vector@PEAU_object@@V?$allocator@PEAU_object@@@std@@@std@@@std@@@std@@SAPEAU?$pair@QEBU_object@@V?$vector@PEAU_object@@V?$allocator@PEAU_object@@@std@@@std@@@2@AEAU32@@Z
    ?pointer_to@?$pointer_traits@PEAU?$pair@QEBXPEAUinstance@detail@pybind11@@@std@@@std@@SAPEAU?$pair@QEBXPEAUinstance@detail@pybind11@@@2@AEAU32@@Z
    ?pointer_to@?$pointer_traits@PEBU?$pair@PEBU_object@@PEBD@std@@@std@@SAPEBU?$pair@PEBU_object@@PEBD@2@AEBU32@@Z
    ?pointer_to@?$pointer_traits@PEBU?$pair@QEAU_typeobject@@V?$vector@PEAUtype_info@detail@pybind11@@V?$allocator@PEAUtype_info@detail@pybind11@@@std@@@std@@@std@@@std@@SAPEBU?$pair@QEAU_typeobject@@V?$vector@PEAUtype_info@detail@pybind11@@V?$allocator@PEAUtype_info@detail@pybind11@@@std@@@std@@@2@AEBU32@@Z
    ?policy@?$return_value_policy_override@$$CBV?$tuple@V?$vector@NV?$allocator@N@std@@@std@@V12@@std@@X@detail@pybind11@@SA?AW4return_value_policy@3@W443@@Z
    ?policy@?$return_value_policy_override@NX@detail@pybind11@@SA?AW4return_value_policy@3@W443@@Z
    ?policy@?$return_value_policy_override@XX@detail@pybind11@@SA?AW4return_value_policy@3@W443@@Z
    ?pop_back@?$vector@PEAU_typeobject@@V?$allocator@PEAU_typeobject@@@std@@@std@@QEAAXXZ
    ?postcall@?$process_attribute_default@PEBD@detail@pybind11@@SAXAEAUfunction_call@23@Vhandle@3@@Z
    ?postcall@?$process_attribute_default@Uarg@pybind11@@@detail@pybind11@@SAXAEAUfunction_call@23@Vhandle@3@@Z
    ?postcall@?$process_attribute_default@Uname@pybind11@@@detail@pybind11@@SAXAEAUfunction_call@23@Vhandle@3@@Z
    ?postcall@?$process_attribute_default@Uscope@pybind11@@@detail@pybind11@@SAXAEAUfunction_call@23@Vhandle@3@@Z
    ?postcall@?$process_attribute_default@Usibling@pybind11@@@detail@pybind11@@SAXAEAUfunction_call@23@Vhandle@3@@Z
    ?postcall@?$process_attributes@$$V@detail@pybind11@@SAXAEAUfunction_call@23@Vhandle@3@@Z
    ?postcall@?$process_attributes@Uname@pybind11@@Uscope@2@Usibling@2@$$BY0DKL@DUarg@2@U52@U52@U52@U52@U52@U52@U52@U52@U52@U52@@detail@pybind11@@SAXAEAUfunction_call@23@Vhandle@3@@Z
    ?postcall@?$process_attributes@Uname@pybind11@@Uscope@2@Usibling@2@$$BY0GBH@DUarg@2@U52@U52@U52@U52@U52@U52@U52@U52@U52@U52@U52@U52@U52@U52@U52@@detail@pybind11@@SAXAEAUfunction_call@23@Vhandle@3@@Z
    ?precall@?$process_attribute_default@PEBD@detail@pybind11@@SAXAEAUfunction_call@23@@Z
    ?precall@?$process_attribute_default@Uarg@pybind11@@@detail@pybind11@@SAXAEAUfunction_call@23@@Z
    ?precall@?$process_attribute_default@Uname@pybind11@@@detail@pybind11@@SAXAEAUfunction_call@23@@Z
    ?precall@?$process_attribute_default@Uscope@pybind11@@@detail@pybind11@@SAXAEAUfunction_call@23@@Z
    ?precall@?$process_attribute_default@Usibling@pybind11@@@detail@pybind11@@SAXAEAUfunction_call@23@@Z
    ?precall@?$process_attributes@$$V@detail@pybind11@@SAXAEAUfunction_call@23@@Z
    ?precall@?$process_attributes@Uname@pybind11@@Uscope@2@Usibling@2@$$BY0DKL@DUarg@2@U52@U52@U52@U52@U52@U52@U52@U52@U52@U52@@detail@pybind11@@SAXAEAUfunction_call@23@@Z
    ?precall@?$process_attributes@Uname@pybind11@@Uscope@2@Usibling@2@$$BY0GBH@DUarg@2@U52@U52@U52@U52@U52@U52@U52@U52@U52@U52@U52@U52@U52@U52@U52@@detail@pybind11@@SAXAEAUfunction_call@23@@Z
    ?ptr@?$accessor@Ustr_attr@accessor_policies@detail@pybind11@@@detail@pybind11@@QEBAPEAU_object@@XZ
    ?ptr@handle@pybind11@@QEAAAEAPEAU_object@@XZ
    ?ptr@handle@pybind11@@QEBAPEAU_object@@XZ
    ?push_back@?$basic_string@DU?$char_traits@D@std@@V?$allocator@D@2@@std@@QEAAXD@Z
    ?push_back@?$vector@PEADV?$allocator@PEAD@std@@@std@@QEAAXAEBQEAD@Z
    ?push_back@?$vector@PEAU_typeobject@@V?$allocator@PEAU_typeobject@@@std@@@std@@QEAAX$$QEAPEAU_typeobject@@@Z
    ?push_back@?$vector@PEAUtype_info@detail@pybind11@@V?$allocator@PEAUtype_info@detail@pybind11@@@std@@@std@@QEAAXAEBQEAUtype_info@detail@pybind11@@@Z
    ?push_back@?$vector@Ufunction_call@detail@pybind11@@V?$allocator@Ufunction_call@detail@pybind11@@@std@@@std@@QEAAX$$QEAUfunction_call@detail@pybind11@@@Z
    ?push_back@?$vector@Vhandle@pybind11@@V?$allocator@Vhandle@pybind11@@@std@@@std@@QEAAX$$QEAVhandle@pybind11@@@Z
    ?push_back@?$vector@Vhandle@pybind11@@V?$allocator@Vhandle@pybind11@@@std@@@std@@QEAAXAEBVhandle@pybind11@@@Z
    ?push_back@?$vector@_NV?$allocator@_N@std@@@std@@QEAAXAEB_N@Z
    ?push_front@?$forward_list@P6AXVexception_ptr@std@@@ZV?$allocator@P6AXVexception_ptr@std@@@Z@2@@std@@QEAAX$$QEAP6AXVexception_ptr@2@@Z@Z
    ?pybind11_fail@pybind11@@YAXAEBV?$basic_string@DU?$char_traits@D@std@@V?$allocator@D@2@@std@@@Z
    ?pybind11_fail@pybind11@@YAXPEBD@Z
    ?quote_cpp_type_name@detail@pybind11@@YA?AV?$basic_string@DU?$char_traits@D@std@@V?$allocator@D@2@@std@@AEBV34@@Z
    ?raise_err@detail@pybind11@@YA_NPEAU_object@@PEBD@Z
    ?raise_from@pybind11@@YAXAEAVerror_already_set@1@PEAU_object@@PEBD@Z
    ?raise_from@pybind11@@YAXPEAU_object@@PEBD@Z
    ?raw_dict@dict@pybind11@@CAPEAU_object@@PEAU3@@Z
    ?raw_str@str@pybind11@@CAPEAU_object@@PEAU3@@Z
    ?ref_count@?$object_api@Vhandle@pybind11@@@detail@pybind11@@QEBA_JXZ
    ?release@?$unique_ptr@Ufunction_record@detail@pybind11@@UInitializingFunctionRecordDeleter@cpp_function@3@@std@@QEAAPEAUfunction_record@detail@pybind11@@XZ
    ?release@object@pybind11@@QEAA?AVhandle@2@XZ
    ?release@strdup_guard@cpp_function@pybind11@@QEAAXXZ
    ?replace_newlines_and_squash@detail@pybind11@@YA?AV?$basic_string@DU?$char_traits@D@std@@V?$allocator@D@2@@std@@PEBD@Z
    ?repr@pybind11@@YA?AVstr@1@Vhandle@1@@Z
    ?reserve@?$vector@IV?$allocator@I@std@@@std@@QEAAX_K@Z
    ?reserve@?$vector@Vhandle@pybind11@@V?$allocator@Vhandle@pybind11@@@std@@@std@@QEAAX_K@Z
    ?reserve@?$vector@_NV?$allocator@_N@std@@@std@@QEAAX_K@Z
    ?resize@?$vector@IV?$allocator@I@std@@@std@@QEAAX_KAEBI@Z
    ?resize@?$vector@_NV?$allocator@_N@std@@@std@@QEAAX_K_N@Z
    ?restore@error_already_set@pybind11@@QEAAXXZ
    ?restore@error_fetch_and_normalize@detail@pybind11@@QEAAXXZ
    ?rethrow_exception@std@@YAXVexception_ptr@1@@Z
    ?rfind@?$basic_string@DU?$char_traits@D@std@@V?$allocator@D@2@@std@@QEBA_KQEBD_K@Z
    ?select_on_container_copy_construction@?$_Default_allocator_traits@V?$allocator@D@std@@@std@@SA?AV?$allocator@D@2@AEBV32@@Z
    ?select_on_container_copy_construction@?$_Default_allocator_traits@V?$allocator@N@std@@@std@@SA?AV?$allocator@N@2@AEBV32@@Z
    ?set@generic_item@accessor_policies@detail@pybind11@@SAXVhandle@4@00@Z
    ?set@str_attr@accessor_policies@detail@pybind11@@SAXVhandle@4@PEBD0@Z
    ?set_error@cast_error@pybind11@@UEBAXXZ
    ?set_error@pybind11@@YAXAEBVhandle@1@PEBD@Z
    ?set_pointer@capsule@pybind11@@QEAAXPEBX@Z
    ?set_stack_top@loader_life_support@detail@pybind11@@CAXPEAV123@@Z
    ?setattr@pybind11@@YAXVhandle@1@PEBD0@Z
    ?show_function_signatures@options@pybind11@@SA_NXZ
    ?show_user_defined_docstrings@options@pybind11@@SA_NXZ
    ?shrink_to_fit@?$vector@Uargument_record@detail@pybind11@@V?$allocator@Uargument_record@detail@pybind11@@@std@@@std@@QEAAXXZ
    ?size@?$_Hash_vec@V?$allocator@V?$_List_unchecked_const_iterator@V?$_List_val@U?$_List_simple_types@PEAU_object@@@std@@@std@@U_Iterator_base0@2@@std@@@std@@@std@@QEBA_KXZ
    ?size@?$_Hash_vec@V?$allocator@V?$_List_unchecked_const_iterator@V?$_List_val@U?$_List_simple_types@U?$pair@PEBU_object@@PEBD@std@@@std@@@std@@U_Iterator_base0@2@@std@@@std@@@std@@QEBA_KXZ
    ?size@?$_Hash_vec@V?$allocator@V?$_List_unchecked_iterator@V?$_List_val@U?$_List_simple_types@U?$pair@$$CBV?$basic_string@DU?$char_traits@D@std@@V?$allocator@D@2@@std@@PEAX@std@@@std@@@std@@@std@@@std@@@std@@QEBA_KXZ
    ?size@?$_Hash_vec@V?$allocator@V?$_List_unchecked_iterator@V?$_List_val@U?$_List_simple_types@U?$pair@$$CBVtype_index@std@@PEAUtype_info@detail@pybind11@@@std@@@std@@@std@@@std@@@std@@@std@@QEBA_KXZ
    ?size@?$_Hash_vec@V?$allocator@V?$_List_unchecked_iterator@V?$_List_val@U?$_List_simple_types@U?$pair@$$CBVtype_index@std@@V?$vector@P6A_NPEAU_object@@AEAPEAX@ZV?$allocator@P6A_NPEAU_object@@AEAPEAX@Z@std@@@2@@std@@@std@@@std@@@std@@@std@@@std@@QEBA_KXZ
    ?size@?$_Hash_vec@V?$allocator@V?$_List_unchecked_iterator@V?$_List_val@U?$_List_simple_types@U?$pair@QEAU_typeobject@@V?$vector@PEAUtype_info@detail@pybind11@@V?$allocator@PEAUtype_info@detail@pybind11@@@std@@@std@@@std@@@std@@@std@@@std@@@std@@@std@@QEBA_KXZ
    ?size@?$_Hash_vec@V?$allocator@V?$_List_unchecked_iterator@V?$_List_val@U?$_List_simple_types@U?$pair@QEBU_object@@V?$vector@PEAU_object@@V?$allocator@PEAU_object@@@std@@@std@@@std@@@std@@@std@@@std@@@std@@@std@@QEBA_KXZ
    ?size@?$_Hash_vec@V?$allocator@V?$_List_unchecked_iterator@V?$_List_val@U?$_List_simple_types@U?$pair@QEBXPEAUinstance@detail@pybind11@@@std@@@std@@@std@@@std@@@std@@@std@@QEBA_KXZ
    ?size@?$array@Vobject@pybind11@@$00@std@@QEBA_KXZ
    ?size@?$basic_string@DU?$char_traits@D@std@@V?$allocator@D@2@@std@@QEBA_KXZ
    ?size@?$vector@IV?$allocator@I@std@@@std@@QEBA_KXZ
    ?size@?$vector@NV?$allocator@N@std@@@std@@QEBA_KXZ
    ?size@?$vector@PEAU_typeobject@@V?$allocator@PEAU_typeobject@@@std@@@std@@QEBA_KXZ
    ?size@?$vector@PEAUtype_info@detail@pybind11@@V?$allocator@PEAUtype_info@detail@pybind11@@@std@@@std@@QEBA_KXZ
    ?size@?$vector@Uargument_record@detail@pybind11@@V?$allocator@Uargument_record@detail@pybind11@@@std@@@std@@QEBA_KXZ
    ?size@?$vector@Vhandle@pybind11@@V?$allocator@Vhandle@pybind11@@@std@@@std@@QEBA_KXZ
    ?size@?$vector@_NV?$allocator@_N@std@@@std@@QEBA_KXZ
    ?size@dict@pybind11@@QEBA_KXZ
    ?size@tuple@pybind11@@QEBA_KXZ
    ?substr@?$basic_string@DU?$char_traits@D@std@@V?$allocator@D@2@@std@@QEBA?AV12@_K0@Z
    ?swap@?$vector@IV?$allocator@I@std@@@std@@QEAAXAEAV12@@Z
    ?swap@?$vector@_NV?$allocator@_N@std@@@std@@QEAAXAEAV12@@Z
    ?throw_gilstate_error@handle@pybind11@@AEBAXAEBV?$basic_string@DU?$char_traits@D@std@@V?$allocator@D@2@@std@@@Z
    ?to_string@std@@YA?AV?$basic_string@DU?$char_traits@D@std@@V?$allocator@D@2@@1@H@Z
    ?to_string@std@@YA?AV?$basic_string@DU?$char_traits@D@std@@V?$allocator@D@2@@1@_J@Z
    ?to_string@std@@YA?AV?$basic_string@DU?$char_traits@D@std@@V?$allocator@D@2@@1@_K@Z
    ?translate_exception@detail@pybind11@@YAXVexception_ptr@std@@@Z
    ?translate_local_exception@detail@pybind11@@YAXVexception_ptr@std@@@Z
    ?traverse_offset_bases@detail@pybind11@@YAXPEAXPEBUtype_info@12@PEAUinstance@12@P6A_N02@Z@Z
    ?type_incref@detail@pybind11@@YAPEAU_typeobject@@PEAU3@@Z
    ?what@error_already_set@pybind11@@UEBAPEBDXZ
    ?what@exception@std@@UEBAPEBDXZ
    __local_stdio_printf_options
    _vfprintf_l
    dintels
    dintelu
    fprintf
